
bin/kernel：     文件格式 elf32-littleriscv


Disassembly of section .text:

00000000 <user_trap_entry-0x100>:
	...

00000100 <user_trap_entry>:
     100:	2100006f          	j	310 <trap_entry>
     104:	00000013          	nop
     108:	00000013          	nop
     10c:	00000013          	nop
     110:	00000013          	nop
     114:	00000013          	nop
     118:	00000013          	nop
     11c:	00000013          	nop
     120:	00000013          	nop
     124:	00000013          	nop
     128:	00000013          	nop
     12c:	00000013          	nop
     130:	00000013          	nop
     134:	00000013          	nop
     138:	00000013          	nop
     13c:	00000013          	nop

00000140 <supervisor_trap_entry>:
     140:	1d00006f          	j	310 <trap_entry>
     144:	00000013          	nop
     148:	00000013          	nop
     14c:	00000013          	nop
     150:	00000013          	nop
     154:	00000013          	nop
     158:	00000013          	nop
     15c:	00000013          	nop
     160:	00000013          	nop
     164:	00000013          	nop
     168:	00000013          	nop
     16c:	00000013          	nop
     170:	00000013          	nop
     174:	00000013          	nop
     178:	00000013          	nop
     17c:	00000013          	nop

00000180 <hypervisor_trap_entry>:
     180:	1900006f          	j	310 <trap_entry>
     184:	00000013          	nop
     188:	00000013          	nop
     18c:	00000013          	nop
     190:	00000013          	nop
     194:	00000013          	nop
     198:	00000013          	nop
     19c:	00000013          	nop
     1a0:	00000013          	nop
     1a4:	00000013          	nop
     1a8:	00000013          	nop
     1ac:	00000013          	nop
     1b0:	00000013          	nop
     1b4:	00000013          	nop
     1b8:	00000013          	nop
     1bc:	00000013          	nop

000001c0 <machine_trap_entry>:
     1c0:	1500006f          	j	310 <trap_entry>
     1c4:	00000013          	nop
     1c8:	00000013          	nop
     1cc:	00000013          	nop
     1d0:	00000013          	nop
     1d4:	00000013          	nop
     1d8:	00000013          	nop
     1dc:	00000013          	nop
     1e0:	00000013          	nop
     1e4:	00000013          	nop
     1e8:	00000013          	nop
     1ec:	00000013          	nop
     1f0:	00000013          	nop
     1f4:	00000013          	nop
     1f8:	00000013          	nop
     1fc:	00000013          	nop

00000200 <_mstart>:
     200:	00000093          	li	ra,0
     204:	00000113          	li	sp,0
     208:	00000193          	li	gp,0
     20c:	00000213          	li	tp,0
     210:	00000293          	li	t0,0
     214:	00000313          	li	t1,0
     218:	00000393          	li	t2,0
     21c:	00000413          	li	s0,0
     220:	00000493          	li	s1,0
     224:	00000513          	li	a0,0
     228:	00000593          	li	a1,0
     22c:	00000613          	li	a2,0
     230:	00000693          	li	a3,0
     234:	00000713          	li	a4,0
     238:	00000793          	li	a5,0
     23c:	00000813          	li	a6,0
     240:	00000893          	li	a7,0
     244:	00000913          	li	s2,0
     248:	00000993          	li	s3,0
     24c:	00000a13          	li	s4,0
     250:	00000a93          	li	s5,0
     254:	00000b13          	li	s6,0
     258:	00000b93          	li	s7,0
     25c:	00000c13          	li	s8,0
     260:	00000c93          	li	s9,0
     264:	00000d13          	li	s10,0
     268:	00000d93          	li	s11,0
     26c:	00000e13          	li	t3,0
     270:	00000e93          	li	t4,0
     274:	00000f13          	li	t5,0
     278:	00000f93          	li	t6,0
     27c:	0000f197          	auipc	gp,0xf
     280:	b7c18193          	addi	gp,gp,-1156 # edf8 <_gp>

00000284 <init_bss>:
     284:	0000e517          	auipc	a0,0xe
     288:	39450513          	addi	a0,a0,916 # e618 <edata>
     28c:	0000f597          	auipc	a1,0xf
     290:	43458593          	addi	a1,a1,1076 # f6c0 <__bss_end>
     294:	00000613          	li	a2,0
     298:	1a8000ef          	jal	440 <fill_block>

0000029c <init_sbss>:
     29c:	0000e517          	auipc	a0,0xe
     2a0:	34850513          	addi	a0,a0,840 # e5e4 <__sbss_start>
     2a4:	0000e597          	auipc	a1,0xe
     2a8:	35458593          	addi	a1,a1,852 # e5f8 <__sbss_end>
     2ac:	00000613          	li	a2,0
     2b0:	190000ef          	jal	440 <fill_block>

000002b4 <init_sbss2>:
     2b4:	0000e517          	auipc	a0,0xe
     2b8:	36450513          	addi	a0,a0,868 # e618 <edata>
     2bc:	0000e597          	auipc	a1,0xe
     2c0:	35c58593          	addi	a1,a1,860 # e618 <edata>
     2c4:	00000613          	li	a2,0
     2c8:	178000ef          	jal	440 <fill_block>

000002cc <write_stack_pattern>:
     2cc:	0003f517          	auipc	a0,0x3f
     2d0:	3f450513          	addi	a0,a0,1012 # 3f6c0 <_heap_end>
     2d4:	0006f597          	auipc	a1,0x6f
     2d8:	3ec58593          	addi	a1,a1,1004 # 6f6c0 <__stack>
     2dc:	ababb637          	lui	a2,0xababb
     2e0:	bab60613          	addi	a2,a2,-1109 # abababab <realend+0xaba4abab>
     2e4:	15c000ef          	jal	440 <fill_block>

000002e8 <init_stack>:
     2e8:	0006f117          	auipc	sp,0x6f
     2ec:	3d810113          	addi	sp,sp,984 # 6f6c0 <__stack>
     2f0:	1640006f          	j	454 <kern_init>

000002f4 <interrupt>:
     2f4:	0012d293          	srli	t0,t0,0x1
     2f8:	00028a63          	beqz	t0,30c <softwareInterrupt>
     2fc:	00012283          	lw	t0,0(sp)
     300:	00410113          	addi	sp,sp,4
     304:	2e00306f          	j	35e4 <TIMER_CMP_INT>
     308:	10000073          	eret

0000030c <softwareInterrupt>:
     30c:	10000073          	eret

00000310 <trap_entry>:
     310:	ffc10113          	addi	sp,sp,-4
     314:	00512023          	sw	t0,0(sp)
     318:	342022f3          	csrr	t0,mcause
     31c:	fc02cce3          	bltz	t0,2f4 <interrupt>
     320:	00012283          	lw	t0,0(sp)
     324:	00410113          	addi	sp,sp,4
     328:	f8410113          	addi	sp,sp,-124
     32c:	00112223          	sw	ra,4(sp)
     330:	00212423          	sw	sp,8(sp)
     334:	00312623          	sw	gp,12(sp)
     338:	00412823          	sw	tp,16(sp)
     33c:	00512a23          	sw	t0,20(sp)
     340:	00612c23          	sw	t1,24(sp)
     344:	00712e23          	sw	t2,28(sp)
     348:	02812023          	sw	s0,32(sp)
     34c:	02912223          	sw	s1,36(sp)
     350:	02a12423          	sw	a0,40(sp)
     354:	02b12623          	sw	a1,44(sp)
     358:	02c12823          	sw	a2,48(sp)
     35c:	02d12a23          	sw	a3,52(sp)
     360:	02e12c23          	sw	a4,56(sp)
     364:	02f12e23          	sw	a5,60(sp)
     368:	05012023          	sw	a6,64(sp)
     36c:	05112223          	sw	a7,68(sp)
     370:	05212423          	sw	s2,72(sp)
     374:	05312623          	sw	s3,76(sp)
     378:	05412823          	sw	s4,80(sp)
     37c:	05512a23          	sw	s5,84(sp)
     380:	05612c23          	sw	s6,88(sp)
     384:	05712e23          	sw	s7,92(sp)
     388:	07812023          	sw	s8,96(sp)
     38c:	07912223          	sw	s9,100(sp)
     390:	07a12423          	sw	s10,104(sp)
     394:	07b12623          	sw	s11,108(sp)
     398:	07c12823          	sw	t3,112(sp)
     39c:	07d12a23          	sw	t4,116(sp)
     3a0:	07e12c23          	sw	t5,120(sp)
     3a4:	07f12e23          	sw	t6,124(sp)
     3a8:	34202573          	csrr	a0,mcause
     3ac:	341025f3          	csrr	a1,mepc
     3b0:	34302673          	csrr	a2,mbadaddr
     3b4:	00010693          	mv	a3,sp
     3b8:	64c090ef          	jal	9a04 <ulSyscallTrap>
     3bc:	00412083          	lw	ra,4(sp)
     3c0:	00812103          	lw	sp,8(sp)
     3c4:	00c12183          	lw	gp,12(sp)
     3c8:	01012203          	lw	tp,16(sp)
     3cc:	01412283          	lw	t0,20(sp)
     3d0:	01812303          	lw	t1,24(sp)
     3d4:	01c12383          	lw	t2,28(sp)
     3d8:	02012403          	lw	s0,32(sp)
     3dc:	02412483          	lw	s1,36(sp)
     3e0:	02812503          	lw	a0,40(sp)
     3e4:	02c12583          	lw	a1,44(sp)
     3e8:	03012603          	lw	a2,48(sp)
     3ec:	03412683          	lw	a3,52(sp)
     3f0:	03812703          	lw	a4,56(sp)
     3f4:	03c12783          	lw	a5,60(sp)
     3f8:	04012803          	lw	a6,64(sp)
     3fc:	04412883          	lw	a7,68(sp)
     400:	04812903          	lw	s2,72(sp)
     404:	04c12983          	lw	s3,76(sp)
     408:	05012a03          	lw	s4,80(sp)
     40c:	05412a83          	lw	s5,84(sp)
     410:	05812b03          	lw	s6,88(sp)
     414:	05c12b83          	lw	s7,92(sp)
     418:	06012c03          	lw	s8,96(sp)
     41c:	06412c83          	lw	s9,100(sp)
     420:	06812d03          	lw	s10,104(sp)
     424:	06c12d83          	lw	s11,108(sp)
     428:	07012e03          	lw	t3,112(sp)
     42c:	07412e83          	lw	t4,116(sp)
     430:	07812f03          	lw	t5,120(sp)
     434:	07c12f83          	lw	t6,124(sp)
     438:	07c10113          	addi	sp,sp,124
     43c:	10000073          	eret

00000440 <fill_block>:
     440:	00c52023          	sw	a2,0(a0)
     444:	00b57663          	bleu	a1,a0,450 <fb_end>
     448:	00450513          	addi	a0,a0,4
     44c:	ff5ff06f          	j	440 <fill_block>

00000450 <fb_end>:
     450:	00008067          	ret

00000454 <kern_init>:
     454:	fe010113          	addi	sp,sp,-32
     458:	00112e23          	sw	ra,28(sp)
     45c:	00812c23          	sw	s0,24(sp)
     460:	02010413          	addi	s0,sp,32
     464:	0000f7b7          	lui	a5,0xf
     468:	6c078713          	addi	a4,a5,1728 # f6c0 <__bss_end>
     46c:	82018793          	addi	a5,gp,-2016 # e618 <edata>
     470:	40f707b3          	sub	a5,a4,a5
     474:	00078613          	mv	a2,a5
     478:	00000593          	li	a1,0
     47c:	82018513          	addi	a0,gp,-2016 # e618 <edata>
     480:	56d090ef          	jal	a1ec <memset>
     484:	0000c7b7          	lui	a5,0xc
     488:	93478793          	addi	a5,a5,-1740 # b934 <etext>
     48c:	fef42623          	sw	a5,-20(s0)
     490:	fec42583          	lw	a1,-20(s0)
     494:	0000c7b7          	lui	a5,0xc
     498:	95078513          	addi	a0,a5,-1712 # b950 <etext+0x1c>
     49c:	340000ef          	jal	7dc <cprintf>
     4a0:	4bd000ef          	jal	115c <print_kerninfo>
     4a4:	0dc000ef          	jal	580 <grade_backtrace>
     4a8:	505070ef          	jal	81ac <pmm_init>
     4ac:	100030ef          	jal	35ac <S2M>
     4b0:	455010ef          	jal	2104 <clock_init>
     4b4:	0000006f          	j	4b4 <kern_init+0x60>

000004b8 <grade_backtrace2>:
     4b8:	fe010113          	addi	sp,sp,-32
     4bc:	00112e23          	sw	ra,28(sp)
     4c0:	00812c23          	sw	s0,24(sp)
     4c4:	02010413          	addi	s0,sp,32
     4c8:	fea42623          	sw	a0,-20(s0)
     4cc:	feb42423          	sw	a1,-24(s0)
     4d0:	fec42223          	sw	a2,-28(s0)
     4d4:	fed42023          	sw	a3,-32(s0)
     4d8:	00000613          	li	a2,0
     4dc:	00000593          	li	a1,0
     4e0:	00000513          	li	a0,0
     4e4:	1fc010ef          	jal	16e0 <mon_backtrace>
     4e8:	00000013          	nop
     4ec:	01c12083          	lw	ra,28(sp)
     4f0:	01812403          	lw	s0,24(sp)
     4f4:	02010113          	addi	sp,sp,32
     4f8:	00008067          	ret

000004fc <grade_backtrace1>:
     4fc:	fe010113          	addi	sp,sp,-32
     500:	00112e23          	sw	ra,28(sp)
     504:	00812c23          	sw	s0,24(sp)
     508:	02010413          	addi	s0,sp,32
     50c:	fea42623          	sw	a0,-20(s0)
     510:	feb42423          	sw	a1,-24(s0)
     514:	fec42783          	lw	a5,-20(s0)
     518:	fec40713          	addi	a4,s0,-20
     51c:	fe842603          	lw	a2,-24(s0)
     520:	fe840693          	addi	a3,s0,-24
     524:	00070593          	mv	a1,a4
     528:	00078513          	mv	a0,a5
     52c:	f8dff0ef          	jal	4b8 <grade_backtrace2>
     530:	00000013          	nop
     534:	01c12083          	lw	ra,28(sp)
     538:	01812403          	lw	s0,24(sp)
     53c:	02010113          	addi	sp,sp,32
     540:	00008067          	ret

00000544 <grade_backtrace0>:
     544:	fe010113          	addi	sp,sp,-32
     548:	00112e23          	sw	ra,28(sp)
     54c:	00812c23          	sw	s0,24(sp)
     550:	02010413          	addi	s0,sp,32
     554:	fea42623          	sw	a0,-20(s0)
     558:	feb42423          	sw	a1,-24(s0)
     55c:	fec42223          	sw	a2,-28(s0)
     560:	fe442583          	lw	a1,-28(s0)
     564:	fec42503          	lw	a0,-20(s0)
     568:	f95ff0ef          	jal	4fc <grade_backtrace1>
     56c:	00000013          	nop
     570:	01c12083          	lw	ra,28(sp)
     574:	01812403          	lw	s0,24(sp)
     578:	02010113          	addi	sp,sp,32
     57c:	00008067          	ret

00000580 <grade_backtrace>:
     580:	ff010113          	addi	sp,sp,-16
     584:	00112623          	sw	ra,12(sp)
     588:	00812423          	sw	s0,8(sp)
     58c:	01010413          	addi	s0,sp,16
     590:	45400793          	li	a5,1108
     594:	ffff0637          	lui	a2,0xffff0
     598:	00078593          	mv	a1,a5
     59c:	00000513          	li	a0,0
     5a0:	fa5ff0ef          	jal	544 <grade_backtrace0>
     5a4:	00000013          	nop
     5a8:	00c12083          	lw	ra,12(sp)
     5ac:	00812403          	lw	s0,8(sp)
     5b0:	01010113          	addi	sp,sp,16
     5b4:	00008067          	ret

000005b8 <lab1_print_cur_status>:
     5b8:	fe010113          	addi	sp,sp,-32
     5bc:	00112e23          	sw	ra,28(sp)
     5c0:	00812c23          	sw	s0,24(sp)
     5c4:	02010413          	addi	s0,sp,32
     5c8:	8201a703          	lw	a4,-2016(gp) # e618 <edata>
     5cc:	fee45783          	lhu	a5,-18(s0)
     5d0:	0037f793          	andi	a5,a5,3
     5d4:	00078613          	mv	a2,a5
     5d8:	00070593          	mv	a1,a4
     5dc:	0000c7b7          	lui	a5,0xc
     5e0:	95878513          	addi	a0,a5,-1704 # b958 <etext+0x24>
     5e4:	1f8000ef          	jal	7dc <cprintf>
     5e8:	8201a783          	lw	a5,-2016(gp) # e618 <edata>
     5ec:	fee45703          	lhu	a4,-18(s0)
     5f0:	00070613          	mv	a2,a4
     5f4:	00078593          	mv	a1,a5
     5f8:	0000c7b7          	lui	a5,0xc
     5fc:	96878513          	addi	a0,a5,-1688 # b968 <etext+0x34>
     600:	1dc000ef          	jal	7dc <cprintf>
     604:	8201a783          	lw	a5,-2016(gp) # e618 <edata>
     608:	fec45703          	lhu	a4,-20(s0)
     60c:	00070613          	mv	a2,a4
     610:	00078593          	mv	a1,a5
     614:	0000c7b7          	lui	a5,0xc
     618:	97878513          	addi	a0,a5,-1672 # b978 <etext+0x44>
     61c:	1c0000ef          	jal	7dc <cprintf>
     620:	8201a783          	lw	a5,-2016(gp) # e618 <edata>
     624:	fea45703          	lhu	a4,-22(s0)
     628:	00070613          	mv	a2,a4
     62c:	00078593          	mv	a1,a5
     630:	0000c7b7          	lui	a5,0xc
     634:	98878513          	addi	a0,a5,-1656 # b988 <etext+0x54>
     638:	1a4000ef          	jal	7dc <cprintf>
     63c:	8201a783          	lw	a5,-2016(gp) # e618 <edata>
     640:	fe845703          	lhu	a4,-24(s0)
     644:	00070613          	mv	a2,a4
     648:	00078593          	mv	a1,a5
     64c:	0000c7b7          	lui	a5,0xc
     650:	99878513          	addi	a0,a5,-1640 # b998 <etext+0x64>
     654:	188000ef          	jal	7dc <cprintf>
     658:	8201a783          	lw	a5,-2016(gp) # e618 <edata>
     65c:	00178713          	addi	a4,a5,1
     660:	82e1a023          	sw	a4,-2016(gp) # e618 <edata>
     664:	00000013          	nop
     668:	01c12083          	lw	ra,28(sp)
     66c:	01812403          	lw	s0,24(sp)
     670:	02010113          	addi	sp,sp,32
     674:	00008067          	ret

00000678 <lab1_switch_to_user>:
     678:	ff010113          	addi	sp,sp,-16
     67c:	00812623          	sw	s0,12(sp)
     680:	01010413          	addi	s0,sp,16
     684:	00000013          	nop
     688:	00c12403          	lw	s0,12(sp)
     68c:	01010113          	addi	sp,sp,16
     690:	00008067          	ret

00000694 <lab1_switch_to_kernel>:
     694:	ff010113          	addi	sp,sp,-16
     698:	00812623          	sw	s0,12(sp)
     69c:	01010413          	addi	s0,sp,16
     6a0:	00000013          	nop
     6a4:	00c12403          	lw	s0,12(sp)
     6a8:	01010113          	addi	sp,sp,16
     6ac:	00008067          	ret

000006b0 <lab1_switch_test>:
     6b0:	ff010113          	addi	sp,sp,-16
     6b4:	00112623          	sw	ra,12(sp)
     6b8:	00812423          	sw	s0,8(sp)
     6bc:	01010413          	addi	s0,sp,16
     6c0:	ef9ff0ef          	jal	5b8 <lab1_print_cur_status>
     6c4:	0000c7b7          	lui	a5,0xc
     6c8:	9a878513          	addi	a0,a5,-1624 # b9a8 <etext+0x74>
     6cc:	110000ef          	jal	7dc <cprintf>
     6d0:	fa9ff0ef          	jal	678 <lab1_switch_to_user>
     6d4:	ee5ff0ef          	jal	5b8 <lab1_print_cur_status>
     6d8:	0000c7b7          	lui	a5,0xc
     6dc:	9c878513          	addi	a0,a5,-1592 # b9c8 <etext+0x94>
     6e0:	0fc000ef          	jal	7dc <cprintf>
     6e4:	fb1ff0ef          	jal	694 <lab1_switch_to_kernel>
     6e8:	ed1ff0ef          	jal	5b8 <lab1_print_cur_status>
     6ec:	00000013          	nop
     6f0:	00c12083          	lw	ra,12(sp)
     6f4:	00812403          	lw	s0,8(sp)
     6f8:	01010113          	addi	sp,sp,16
     6fc:	00008067          	ret

00000700 <cputch>:
     700:	fd010113          	addi	sp,sp,-48
     704:	02112623          	sw	ra,44(sp)
     708:	02812423          	sw	s0,40(sp)
     70c:	03010413          	addi	s0,sp,48
     710:	fca42e23          	sw	a0,-36(s0)
     714:	fcb42c23          	sw	a1,-40(s0)
     718:	f8010113          	addi	sp,sp,-128
     71c:	00010793          	mv	a5,sp
     720:	03f78793          	addi	a5,a5,63
     724:	0067d793          	srli	a5,a5,0x6
     728:	00679713          	slli	a4,a5,0x6
     72c:	fe042623          	sw	zero,-20(s0)
     730:	fec42783          	lw	a5,-20(s0)
     734:	00178693          	addi	a3,a5,1
     738:	fed42623          	sw	a3,-20(s0)
     73c:	fdc42683          	lw	a3,-36(s0)
     740:	0ff6f693          	andi	a3,a3,255
     744:	00f707b3          	add	a5,a4,a5
     748:	00d78023          	sb	a3,0(a5)
     74c:	00070793          	mv	a5,a4
     750:	fec42683          	lw	a3,-20(s0)
     754:	00078613          	mv	a2,a5
     758:	00100593          	li	a1,1
     75c:	04000513          	li	a0,64
     760:	224090ef          	jal	9984 <syscall>
     764:	fd842783          	lw	a5,-40(s0)
     768:	0007a783          	lw	a5,0(a5)
     76c:	00178713          	addi	a4,a5,1
     770:	fd842783          	lw	a5,-40(s0)
     774:	00e7a023          	sw	a4,0(a5)
     778:	00000013          	nop
     77c:	fd040113          	addi	sp,s0,-48
     780:	02c12083          	lw	ra,44(sp)
     784:	02812403          	lw	s0,40(sp)
     788:	03010113          	addi	sp,sp,48
     78c:	00008067          	ret

00000790 <vcprintf>:
     790:	fd010113          	addi	sp,sp,-48
     794:	02112623          	sw	ra,44(sp)
     798:	02812423          	sw	s0,40(sp)
     79c:	03010413          	addi	s0,sp,48
     7a0:	fca42e23          	sw	a0,-36(s0)
     7a4:	fcb42c23          	sw	a1,-40(s0)
     7a8:	fe042623          	sw	zero,-20(s0)
     7ac:	fec40793          	addi	a5,s0,-20
     7b0:	fd842683          	lw	a3,-40(s0)
     7b4:	fdc42603          	lw	a2,-36(s0)
     7b8:	00078593          	mv	a1,a5
     7bc:	70000513          	li	a0,1792
     7c0:	1340a0ef          	jal	a8f4 <vprintfmt>
     7c4:	fec42783          	lw	a5,-20(s0)
     7c8:	00078513          	mv	a0,a5
     7cc:	02c12083          	lw	ra,44(sp)
     7d0:	02812403          	lw	s0,40(sp)
     7d4:	03010113          	addi	sp,sp,48
     7d8:	00008067          	ret

000007dc <cprintf>:
     7dc:	fb010113          	addi	sp,sp,-80
     7e0:	02112623          	sw	ra,44(sp)
     7e4:	02812423          	sw	s0,40(sp)
     7e8:	03010413          	addi	s0,sp,48
     7ec:	fca42e23          	sw	a0,-36(s0)
     7f0:	00b42223          	sw	a1,4(s0)
     7f4:	00c42423          	sw	a2,8(s0)
     7f8:	00d42623          	sw	a3,12(s0)
     7fc:	00e42823          	sw	a4,16(s0)
     800:	00f42a23          	sw	a5,20(s0)
     804:	01042c23          	sw	a6,24(s0)
     808:	01142e23          	sw	a7,28(s0)
     80c:	02040793          	addi	a5,s0,32
     810:	fe478793          	addi	a5,a5,-28
     814:	fef42423          	sw	a5,-24(s0)
     818:	fe842783          	lw	a5,-24(s0)
     81c:	00078593          	mv	a1,a5
     820:	fdc42503          	lw	a0,-36(s0)
     824:	f6dff0ef          	jal	790 <vcprintf>
     828:	fea42623          	sw	a0,-20(s0)
     82c:	fec42783          	lw	a5,-20(s0)
     830:	00078513          	mv	a0,a5
     834:	02c12083          	lw	ra,44(sp)
     838:	02812403          	lw	s0,40(sp)
     83c:	05010113          	addi	sp,sp,80
     840:	00008067          	ret

00000844 <cputchar>:
     844:	fe010113          	addi	sp,sp,-32
     848:	00112e23          	sw	ra,28(sp)
     84c:	00812c23          	sw	s0,24(sp)
     850:	02010413          	addi	s0,sp,32
     854:	fea42623          	sw	a0,-20(s0)
     858:	fec42503          	lw	a0,-20(s0)
     85c:	384020ef          	jal	2be0 <cons_putc>
     860:	00000013          	nop
     864:	01c12083          	lw	ra,28(sp)
     868:	01812403          	lw	s0,24(sp)
     86c:	02010113          	addi	sp,sp,32
     870:	00008067          	ret

00000874 <cputs>:
     874:	fd010113          	addi	sp,sp,-48
     878:	02112623          	sw	ra,44(sp)
     87c:	02812423          	sw	s0,40(sp)
     880:	03010413          	addi	s0,sp,48
     884:	fca42e23          	sw	a0,-36(s0)
     888:	fe042423          	sw	zero,-24(s0)
     88c:	0180006f          	j	8a4 <cputs+0x30>
     890:	fef44783          	lbu	a5,-17(s0)
     894:	fe840713          	addi	a4,s0,-24
     898:	00070593          	mv	a1,a4
     89c:	00078513          	mv	a0,a5
     8a0:	e61ff0ef          	jal	700 <cputch>
     8a4:	fdc42783          	lw	a5,-36(s0)
     8a8:	00178713          	addi	a4,a5,1
     8ac:	fce42e23          	sw	a4,-36(s0)
     8b0:	0007c783          	lbu	a5,0(a5)
     8b4:	fef407a3          	sb	a5,-17(s0)
     8b8:	fef44783          	lbu	a5,-17(s0)
     8bc:	fc079ae3          	bnez	a5,890 <cputs+0x1c>
     8c0:	fe840793          	addi	a5,s0,-24
     8c4:	00078593          	mv	a1,a5
     8c8:	00a00513          	li	a0,10
     8cc:	e35ff0ef          	jal	700 <cputch>
     8d0:	fe842783          	lw	a5,-24(s0)
     8d4:	00078513          	mv	a0,a5
     8d8:	02c12083          	lw	ra,44(sp)
     8dc:	02812403          	lw	s0,40(sp)
     8e0:	03010113          	addi	sp,sp,48
     8e4:	00008067          	ret

000008e8 <getchar>:
     8e8:	fe010113          	addi	sp,sp,-32
     8ec:	00112e23          	sw	ra,28(sp)
     8f0:	00812c23          	sw	s0,24(sp)
     8f4:	02010413          	addi	s0,sp,32
     8f8:	338020ef          	jal	2c30 <cons_getc>
     8fc:	fea42623          	sw	a0,-20(s0)
     900:	fec42783          	lw	a5,-20(s0)
     904:	fe078ae3          	beqz	a5,8f8 <getchar+0x10>
     908:	fec42783          	lw	a5,-20(s0)
     90c:	00078513          	mv	a0,a5
     910:	01c12083          	lw	ra,28(sp)
     914:	01812403          	lw	s0,24(sp)
     918:	02010113          	addi	sp,sp,32
     91c:	00008067          	ret

00000920 <readline>:
     920:	fd010113          	addi	sp,sp,-48
     924:	02112623          	sw	ra,44(sp)
     928:	02812423          	sw	s0,40(sp)
     92c:	03010413          	addi	s0,sp,48
     930:	fca42e23          	sw	a0,-36(s0)
     934:	fdc42783          	lw	a5,-36(s0)
     938:	00078a63          	beqz	a5,94c <readline+0x2c>
     93c:	fdc42583          	lw	a1,-36(s0)
     940:	0000c7b7          	lui	a5,0xc
     944:	9e878513          	addi	a0,a5,-1560 # b9e8 <etext+0xb4>
     948:	e95ff0ef          	jal	7dc <cprintf>
     94c:	fe042623          	sw	zero,-20(s0)
     950:	f99ff0ef          	jal	8e8 <getchar>
     954:	fea42423          	sw	a0,-24(s0)
     958:	fe842783          	lw	a5,-24(s0)
     95c:	0007d663          	bgez	a5,968 <readline+0x48>
     960:	00000793          	li	a5,0
     964:	0b00006f          	j	a14 <readline+0xf4>
     968:	fe842703          	lw	a4,-24(s0)
     96c:	01f00793          	li	a5,31
     970:	02e7de63          	ble	a4,a5,9ac <readline+0x8c>
     974:	fec42703          	lw	a4,-20(s0)
     978:	3fe00793          	li	a5,1022
     97c:	02e7c863          	blt	a5,a4,9ac <readline+0x8c>
     980:	fe842503          	lw	a0,-24(s0)
     984:	ec1ff0ef          	jal	844 <cputchar>
     988:	fec42783          	lw	a5,-20(s0)
     98c:	00178713          	addi	a4,a5,1
     990:	fee42623          	sw	a4,-20(s0)
     994:	fe842703          	lw	a4,-24(s0)
     998:	0ff77713          	andi	a4,a4,255
     99c:	82418693          	addi	a3,gp,-2012 # e61c <buf>
     9a0:	00d787b3          	add	a5,a5,a3
     9a4:	00e78023          	sb	a4,0(a5)
     9a8:	0680006f          	j	a10 <readline+0xf0>
     9ac:	fe842703          	lw	a4,-24(s0)
     9b0:	00800793          	li	a5,8
     9b4:	02f71263          	bne	a4,a5,9d8 <readline+0xb8>
     9b8:	fec42783          	lw	a5,-20(s0)
     9bc:	00f05e63          	blez	a5,9d8 <readline+0xb8>
     9c0:	fe842503          	lw	a0,-24(s0)
     9c4:	e81ff0ef          	jal	844 <cputchar>
     9c8:	fec42783          	lw	a5,-20(s0)
     9cc:	fff78793          	addi	a5,a5,-1
     9d0:	fef42623          	sw	a5,-20(s0)
     9d4:	03c0006f          	j	a10 <readline+0xf0>
     9d8:	fe842703          	lw	a4,-24(s0)
     9dc:	00a00793          	li	a5,10
     9e0:	00f70863          	beq	a4,a5,9f0 <readline+0xd0>
     9e4:	fe842703          	lw	a4,-24(s0)
     9e8:	00d00793          	li	a5,13
     9ec:	f6f712e3          	bne	a4,a5,950 <readline+0x30>
     9f0:	fe842503          	lw	a0,-24(s0)
     9f4:	e51ff0ef          	jal	844 <cputchar>
     9f8:	82418713          	addi	a4,gp,-2012 # e61c <buf>
     9fc:	fec42783          	lw	a5,-20(s0)
     a00:	00f707b3          	add	a5,a4,a5
     a04:	00078023          	sb	zero,0(a5)
     a08:	82418793          	addi	a5,gp,-2012 # e61c <buf>
     a0c:	0080006f          	j	a14 <readline+0xf4>
     a10:	f41ff06f          	j	950 <readline+0x30>
     a14:	00078513          	mv	a0,a5
     a18:	02c12083          	lw	ra,44(sp)
     a1c:	02812403          	lw	s0,40(sp)
     a20:	03010113          	addi	sp,sp,48
     a24:	00008067          	ret

00000a28 <__panic>:
     a28:	fb010113          	addi	sp,sp,-80
     a2c:	02112623          	sw	ra,44(sp)
     a30:	02812423          	sw	s0,40(sp)
     a34:	03010413          	addi	s0,sp,48
     a38:	fca42e23          	sw	a0,-36(s0)
     a3c:	fcb42c23          	sw	a1,-40(s0)
     a40:	fcc42a23          	sw	a2,-44(s0)
     a44:	00d42623          	sw	a3,12(s0)
     a48:	00e42823          	sw	a4,16(s0)
     a4c:	00f42a23          	sw	a5,20(s0)
     a50:	01042c23          	sw	a6,24(s0)
     a54:	01142e23          	sw	a7,28(s0)
     a58:	c241a783          	lw	a5,-988(gp) # ea1c <is_panic>
     a5c:	04079663          	bnez	a5,aa8 <__panic+0x80>
     a60:	00100713          	li	a4,1
     a64:	c2e1a223          	sw	a4,-988(gp) # ea1c <is_panic>
     a68:	02040793          	addi	a5,s0,32
     a6c:	fec78793          	addi	a5,a5,-20
     a70:	fef42623          	sw	a5,-20(s0)
     a74:	fd842603          	lw	a2,-40(s0)
     a78:	fdc42583          	lw	a1,-36(s0)
     a7c:	0000c7b7          	lui	a5,0xc
     a80:	9ec78513          	addi	a0,a5,-1556 # b9ec <etext+0xb8>
     a84:	d59ff0ef          	jal	7dc <cprintf>
     a88:	fec42783          	lw	a5,-20(s0)
     a8c:	00078593          	mv	a1,a5
     a90:	fd442503          	lw	a0,-44(s0)
     a94:	cfdff0ef          	jal	790 <vcprintf>
     a98:	0000c7b7          	lui	a5,0xc
     a9c:	a0878513          	addi	a0,a5,-1528 # ba08 <etext+0xd4>
     aa0:	d3dff0ef          	jal	7dc <cprintf>
     aa4:	0080006f          	j	aac <__panic+0x84>
     aa8:	00000013          	nop
     aac:	43c020ef          	jal	2ee8 <intr_disable>
     ab0:	00000513          	li	a0,0
     ab4:	2c1000ef          	jal	1574 <kmonitor>
     ab8:	ff9ff06f          	j	ab0 <__panic+0x88>

00000abc <__warn>:
     abc:	fb010113          	addi	sp,sp,-80
     ac0:	02112623          	sw	ra,44(sp)
     ac4:	02812423          	sw	s0,40(sp)
     ac8:	03010413          	addi	s0,sp,48
     acc:	fca42e23          	sw	a0,-36(s0)
     ad0:	fcb42c23          	sw	a1,-40(s0)
     ad4:	fcc42a23          	sw	a2,-44(s0)
     ad8:	00d42623          	sw	a3,12(s0)
     adc:	00e42823          	sw	a4,16(s0)
     ae0:	00f42a23          	sw	a5,20(s0)
     ae4:	01042c23          	sw	a6,24(s0)
     ae8:	01142e23          	sw	a7,28(s0)
     aec:	02040793          	addi	a5,s0,32
     af0:	fec78793          	addi	a5,a5,-20
     af4:	fef42623          	sw	a5,-20(s0)
     af8:	fd842603          	lw	a2,-40(s0)
     afc:	fdc42583          	lw	a1,-36(s0)
     b00:	0000c7b7          	lui	a5,0xc
     b04:	a0c78513          	addi	a0,a5,-1524 # ba0c <etext+0xd8>
     b08:	cd5ff0ef          	jal	7dc <cprintf>
     b0c:	fec42783          	lw	a5,-20(s0)
     b10:	00078593          	mv	a1,a5
     b14:	fd442503          	lw	a0,-44(s0)
     b18:	c79ff0ef          	jal	790 <vcprintf>
     b1c:	0000c7b7          	lui	a5,0xc
     b20:	a0878513          	addi	a0,a5,-1528 # ba08 <etext+0xd4>
     b24:	cb9ff0ef          	jal	7dc <cprintf>
     b28:	00000013          	nop
     b2c:	02c12083          	lw	ra,44(sp)
     b30:	02812403          	lw	s0,40(sp)
     b34:	05010113          	addi	sp,sp,80
     b38:	00008067          	ret

00000b3c <is_kernel_panic>:
     b3c:	ff010113          	addi	sp,sp,-16
     b40:	00812623          	sw	s0,12(sp)
     b44:	01010413          	addi	s0,sp,16
     b48:	c241a783          	lw	a5,-988(gp) # ea1c <is_panic>
     b4c:	00078513          	mv	a0,a5
     b50:	00c12403          	lw	s0,12(sp)
     b54:	01010113          	addi	sp,sp,16
     b58:	00008067          	ret

00000b5c <stab_binsearch>:
     b5c:	fb010113          	addi	sp,sp,-80
     b60:	04812623          	sw	s0,76(sp)
     b64:	05010413          	addi	s0,sp,80
     b68:	fca42623          	sw	a0,-52(s0)
     b6c:	fcb42423          	sw	a1,-56(s0)
     b70:	fcc42223          	sw	a2,-60(s0)
     b74:	fcd42023          	sw	a3,-64(s0)
     b78:	fae42e23          	sw	a4,-68(s0)
     b7c:	fc842783          	lw	a5,-56(s0)
     b80:	0007a783          	lw	a5,0(a5)
     b84:	fef42623          	sw	a5,-20(s0)
     b88:	fc442783          	lw	a5,-60(s0)
     b8c:	0007a783          	lw	a5,0(a5)
     b90:	fef42423          	sw	a5,-24(s0)
     b94:	fe042223          	sw	zero,-28(s0)
     b98:	1340006f          	j	ccc <stab_binsearch+0x170>
     b9c:	fec42703          	lw	a4,-20(s0)
     ba0:	fe842783          	lw	a5,-24(s0)
     ba4:	00f707b3          	add	a5,a4,a5
     ba8:	01f7d713          	srli	a4,a5,0x1f
     bac:	00f707b3          	add	a5,a4,a5
     bb0:	4017d793          	srai	a5,a5,0x1
     bb4:	fcf42e23          	sw	a5,-36(s0)
     bb8:	fdc42783          	lw	a5,-36(s0)
     bbc:	fef42023          	sw	a5,-32(s0)
     bc0:	0100006f          	j	bd0 <stab_binsearch+0x74>
     bc4:	fe042783          	lw	a5,-32(s0)
     bc8:	fff78793          	addi	a5,a5,-1
     bcc:	fef42023          	sw	a5,-32(s0)
     bd0:	fe042703          	lw	a4,-32(s0)
     bd4:	fec42783          	lw	a5,-20(s0)
     bd8:	02f74663          	blt	a4,a5,c04 <stab_binsearch+0xa8>
     bdc:	fe042783          	lw	a5,-32(s0)
     be0:	00279793          	slli	a5,a5,0x2
     be4:	00279713          	slli	a4,a5,0x2
     be8:	40f707b3          	sub	a5,a4,a5
     bec:	fcc42703          	lw	a4,-52(s0)
     bf0:	00f707b3          	add	a5,a4,a5
     bf4:	0047c783          	lbu	a5,4(a5)
     bf8:	00078713          	mv	a4,a5
     bfc:	fc042783          	lw	a5,-64(s0)
     c00:	fcf712e3          	bne	a4,a5,bc4 <stab_binsearch+0x68>
     c04:	fe042703          	lw	a4,-32(s0)
     c08:	fec42783          	lw	a5,-20(s0)
     c0c:	00f75a63          	ble	a5,a4,c20 <stab_binsearch+0xc4>
     c10:	fdc42783          	lw	a5,-36(s0)
     c14:	00178793          	addi	a5,a5,1
     c18:	fef42623          	sw	a5,-20(s0)
     c1c:	0b00006f          	j	ccc <stab_binsearch+0x170>
     c20:	00100793          	li	a5,1
     c24:	fef42223          	sw	a5,-28(s0)
     c28:	fe042783          	lw	a5,-32(s0)
     c2c:	00279793          	slli	a5,a5,0x2
     c30:	00279713          	slli	a4,a5,0x2
     c34:	40f707b3          	sub	a5,a4,a5
     c38:	fcc42703          	lw	a4,-52(s0)
     c3c:	00f707b3          	add	a5,a4,a5
     c40:	0087a703          	lw	a4,8(a5)
     c44:	fbc42783          	lw	a5,-68(s0)
     c48:	02f77063          	bleu	a5,a4,c68 <stab_binsearch+0x10c>
     c4c:	fc842783          	lw	a5,-56(s0)
     c50:	fe042703          	lw	a4,-32(s0)
     c54:	00e7a023          	sw	a4,0(a5)
     c58:	fdc42783          	lw	a5,-36(s0)
     c5c:	00178793          	addi	a5,a5,1
     c60:	fef42623          	sw	a5,-20(s0)
     c64:	0680006f          	j	ccc <stab_binsearch+0x170>
     c68:	fe042783          	lw	a5,-32(s0)
     c6c:	00279793          	slli	a5,a5,0x2
     c70:	00279713          	slli	a4,a5,0x2
     c74:	40f707b3          	sub	a5,a4,a5
     c78:	fcc42703          	lw	a4,-52(s0)
     c7c:	00f707b3          	add	a5,a4,a5
     c80:	0087a703          	lw	a4,8(a5)
     c84:	fbc42783          	lw	a5,-68(s0)
     c88:	02e7f263          	bleu	a4,a5,cac <stab_binsearch+0x150>
     c8c:	fe042783          	lw	a5,-32(s0)
     c90:	fff78713          	addi	a4,a5,-1
     c94:	fc442783          	lw	a5,-60(s0)
     c98:	00e7a023          	sw	a4,0(a5)
     c9c:	fe042783          	lw	a5,-32(s0)
     ca0:	fff78793          	addi	a5,a5,-1
     ca4:	fef42423          	sw	a5,-24(s0)
     ca8:	0240006f          	j	ccc <stab_binsearch+0x170>
     cac:	fc842783          	lw	a5,-56(s0)
     cb0:	fe042703          	lw	a4,-32(s0)
     cb4:	00e7a023          	sw	a4,0(a5)
     cb8:	fe042783          	lw	a5,-32(s0)
     cbc:	fef42623          	sw	a5,-20(s0)
     cc0:	fbc42783          	lw	a5,-68(s0)
     cc4:	00178793          	addi	a5,a5,1
     cc8:	faf42e23          	sw	a5,-68(s0)
     ccc:	fec42703          	lw	a4,-20(s0)
     cd0:	fe842783          	lw	a5,-24(s0)
     cd4:	ece7d4e3          	ble	a4,a5,b9c <stab_binsearch+0x40>
     cd8:	fe442783          	lw	a5,-28(s0)
     cdc:	00079e63          	bnez	a5,cf8 <stab_binsearch+0x19c>
     ce0:	fc842783          	lw	a5,-56(s0)
     ce4:	0007a783          	lw	a5,0(a5)
     ce8:	fff78713          	addi	a4,a5,-1
     cec:	fc442783          	lw	a5,-60(s0)
     cf0:	00e7a023          	sw	a4,0(a5)
     cf4:	0640006f          	j	d58 <stab_binsearch+0x1fc>
     cf8:	fc442783          	lw	a5,-60(s0)
     cfc:	0007a783          	lw	a5,0(a5)
     d00:	fef42623          	sw	a5,-20(s0)
     d04:	0100006f          	j	d14 <stab_binsearch+0x1b8>
     d08:	fec42783          	lw	a5,-20(s0)
     d0c:	fff78793          	addi	a5,a5,-1
     d10:	fef42623          	sw	a5,-20(s0)
     d14:	fc842783          	lw	a5,-56(s0)
     d18:	0007a703          	lw	a4,0(a5)
     d1c:	fec42783          	lw	a5,-20(s0)
     d20:	02f75663          	ble	a5,a4,d4c <stab_binsearch+0x1f0>
     d24:	fec42783          	lw	a5,-20(s0)
     d28:	00279793          	slli	a5,a5,0x2
     d2c:	00279713          	slli	a4,a5,0x2
     d30:	40f707b3          	sub	a5,a4,a5
     d34:	fcc42703          	lw	a4,-52(s0)
     d38:	00f707b3          	add	a5,a4,a5
     d3c:	0047c783          	lbu	a5,4(a5)
     d40:	00078713          	mv	a4,a5
     d44:	fc042783          	lw	a5,-64(s0)
     d48:	fcf710e3          	bne	a4,a5,d08 <stab_binsearch+0x1ac>
     d4c:	fc842783          	lw	a5,-56(s0)
     d50:	fec42703          	lw	a4,-20(s0)
     d54:	00e7a023          	sw	a4,0(a5)
     d58:	00000013          	nop
     d5c:	04c12403          	lw	s0,76(sp)
     d60:	05010113          	addi	sp,sp,80
     d64:	00008067          	ret

00000d68 <debuginfo_eip>:
     d68:	fb010113          	addi	sp,sp,-80
     d6c:	04112623          	sw	ra,76(sp)
     d70:	04812423          	sw	s0,72(sp)
     d74:	05010413          	addi	s0,sp,80
     d78:	faa42e23          	sw	a0,-68(s0)
     d7c:	fab42c23          	sw	a1,-72(s0)
     d80:	fb842783          	lw	a5,-72(s0)
     d84:	0000c737          	lui	a4,0xc
     d88:	a2c70713          	addi	a4,a4,-1492 # ba2c <etext+0xf8>
     d8c:	00e7a023          	sw	a4,0(a5)
     d90:	fb842783          	lw	a5,-72(s0)
     d94:	0007a223          	sw	zero,4(a5)
     d98:	fb842783          	lw	a5,-72(s0)
     d9c:	0000c737          	lui	a4,0xc
     da0:	a2c70713          	addi	a4,a4,-1492 # ba2c <etext+0xf8>
     da4:	00e7a423          	sw	a4,8(a5)
     da8:	fb842783          	lw	a5,-72(s0)
     dac:	00900713          	li	a4,9
     db0:	00e7a623          	sw	a4,12(a5)
     db4:	fb842783          	lw	a5,-72(s0)
     db8:	fbc42703          	lw	a4,-68(s0)
     dbc:	00e7a823          	sw	a4,16(a5)
     dc0:	fb842783          	lw	a5,-72(s0)
     dc4:	0007aa23          	sw	zero,20(a5)
     dc8:	0000e7b7          	lui	a5,0xe
     dcc:	a4078793          	addi	a5,a5,-1472 # da40 <__STAB_BEGIN__>
     dd0:	fef42623          	sw	a5,-20(s0)
     dd4:	0000e7b7          	lui	a5,0xe
     dd8:	a4078793          	addi	a5,a5,-1472 # da40 <__STAB_BEGIN__>
     ddc:	fef42423          	sw	a5,-24(s0)
     de0:	0000e7b7          	lui	a5,0xe
     de4:	a4178793          	addi	a5,a5,-1471 # da41 <__STABSTR_BEGIN__>
     de8:	fef42223          	sw	a5,-28(s0)
     dec:	0000e7b7          	lui	a5,0xe
     df0:	a4178793          	addi	a5,a5,-1471 # da41 <__STABSTR_BEGIN__>
     df4:	fef42023          	sw	a5,-32(s0)
     df8:	fe042703          	lw	a4,-32(s0)
     dfc:	fe442783          	lw	a5,-28(s0)
     e00:	00e7fa63          	bleu	a4,a5,e14 <debuginfo_eip+0xac>
     e04:	fe042783          	lw	a5,-32(s0)
     e08:	fff78793          	addi	a5,a5,-1
     e0c:	0007c783          	lbu	a5,0(a5)
     e10:	00078663          	beqz	a5,e1c <debuginfo_eip+0xb4>
     e14:	fff00793          	li	a5,-1
     e18:	3300006f          	j	1148 <debuginfo_eip+0x3e0>
     e1c:	fc042e23          	sw	zero,-36(s0)
     e20:	fe842703          	lw	a4,-24(s0)
     e24:	fec42783          	lw	a5,-20(s0)
     e28:	40f707b3          	sub	a5,a4,a5
     e2c:	4027d713          	srai	a4,a5,0x2
     e30:	aaaab7b7          	lui	a5,0xaaaab
     e34:	aab78793          	addi	a5,a5,-1365 # aaaaaaab <realend+0xaaa3aaab>
     e38:	02f707b3          	mul	a5,a4,a5
     e3c:	fff78793          	addi	a5,a5,-1
     e40:	fcf42c23          	sw	a5,-40(s0)
     e44:	fd840613          	addi	a2,s0,-40
     e48:	fdc40793          	addi	a5,s0,-36
     e4c:	fbc42703          	lw	a4,-68(s0)
     e50:	06400693          	li	a3,100
     e54:	00078593          	mv	a1,a5
     e58:	fec42503          	lw	a0,-20(s0)
     e5c:	d01ff0ef          	jal	b5c <stab_binsearch>
     e60:	fdc42783          	lw	a5,-36(s0)
     e64:	00079663          	bnez	a5,e70 <debuginfo_eip+0x108>
     e68:	fff00793          	li	a5,-1
     e6c:	2dc0006f          	j	1148 <debuginfo_eip+0x3e0>
     e70:	fdc42783          	lw	a5,-36(s0)
     e74:	fcf42a23          	sw	a5,-44(s0)
     e78:	fd842783          	lw	a5,-40(s0)
     e7c:	fcf42823          	sw	a5,-48(s0)
     e80:	fd040613          	addi	a2,s0,-48
     e84:	fd440793          	addi	a5,s0,-44
     e88:	fbc42703          	lw	a4,-68(s0)
     e8c:	02400693          	li	a3,36
     e90:	00078593          	mv	a1,a5
     e94:	fec42503          	lw	a0,-20(s0)
     e98:	cc5ff0ef          	jal	b5c <stab_binsearch>
     e9c:	fd442703          	lw	a4,-44(s0)
     ea0:	fd042783          	lw	a5,-48(s0)
     ea4:	0ae7c463          	blt	a5,a4,f4c <debuginfo_eip+0x1e4>
     ea8:	fd442783          	lw	a5,-44(s0)
     eac:	00279793          	slli	a5,a5,0x2
     eb0:	00279713          	slli	a4,a5,0x2
     eb4:	40f707b3          	sub	a5,a4,a5
     eb8:	fec42703          	lw	a4,-20(s0)
     ebc:	00f707b3          	add	a5,a4,a5
     ec0:	0007a783          	lw	a5,0(a5)
     ec4:	fe042683          	lw	a3,-32(s0)
     ec8:	fe442703          	lw	a4,-28(s0)
     ecc:	40e68733          	sub	a4,a3,a4
     ed0:	02e7f863          	bleu	a4,a5,f00 <debuginfo_eip+0x198>
     ed4:	fd442783          	lw	a5,-44(s0)
     ed8:	00279793          	slli	a5,a5,0x2
     edc:	00279713          	slli	a4,a5,0x2
     ee0:	40f707b3          	sub	a5,a4,a5
     ee4:	fec42703          	lw	a4,-20(s0)
     ee8:	00f707b3          	add	a5,a4,a5
     eec:	0007a783          	lw	a5,0(a5)
     ef0:	fe442703          	lw	a4,-28(s0)
     ef4:	00f70733          	add	a4,a4,a5
     ef8:	fb842783          	lw	a5,-72(s0)
     efc:	00e7a423          	sw	a4,8(a5)
     f00:	fd442783          	lw	a5,-44(s0)
     f04:	00279793          	slli	a5,a5,0x2
     f08:	00279713          	slli	a4,a5,0x2
     f0c:	40f707b3          	sub	a5,a4,a5
     f10:	fec42703          	lw	a4,-20(s0)
     f14:	00f707b3          	add	a5,a4,a5
     f18:	0087a703          	lw	a4,8(a5)
     f1c:	fb842783          	lw	a5,-72(s0)
     f20:	00e7a823          	sw	a4,16(a5)
     f24:	fb842783          	lw	a5,-72(s0)
     f28:	0107a783          	lw	a5,16(a5)
     f2c:	fbc42703          	lw	a4,-68(s0)
     f30:	40f707b3          	sub	a5,a4,a5
     f34:	faf42e23          	sw	a5,-68(s0)
     f38:	fd442783          	lw	a5,-44(s0)
     f3c:	fcf42623          	sw	a5,-52(s0)
     f40:	fd042783          	lw	a5,-48(s0)
     f44:	fcf42423          	sw	a5,-56(s0)
     f48:	0200006f          	j	f68 <debuginfo_eip+0x200>
     f4c:	fb842783          	lw	a5,-72(s0)
     f50:	fbc42703          	lw	a4,-68(s0)
     f54:	00e7a823          	sw	a4,16(a5)
     f58:	fdc42783          	lw	a5,-36(s0)
     f5c:	fcf42623          	sw	a5,-52(s0)
     f60:	fd842783          	lw	a5,-40(s0)
     f64:	fcf42423          	sw	a5,-56(s0)
     f68:	fb842783          	lw	a5,-72(s0)
     f6c:	0087a783          	lw	a5,8(a5)
     f70:	03a00593          	li	a1,58
     f74:	00078513          	mv	a0,a5
     f78:	7e5080ef          	jal	9f5c <strfind>
     f7c:	00050793          	mv	a5,a0
     f80:	00078713          	mv	a4,a5
     f84:	fb842783          	lw	a5,-72(s0)
     f88:	0087a783          	lw	a5,8(a5)
     f8c:	40f70733          	sub	a4,a4,a5
     f90:	fb842783          	lw	a5,-72(s0)
     f94:	00e7a623          	sw	a4,12(a5)
     f98:	fc840613          	addi	a2,s0,-56
     f9c:	fcc40793          	addi	a5,s0,-52
     fa0:	fbc42703          	lw	a4,-68(s0)
     fa4:	04400693          	li	a3,68
     fa8:	00078593          	mv	a1,a5
     fac:	fec42503          	lw	a0,-20(s0)
     fb0:	badff0ef          	jal	b5c <stab_binsearch>
     fb4:	fcc42703          	lw	a4,-52(s0)
     fb8:	fc842783          	lw	a5,-56(s0)
     fbc:	02e7c863          	blt	a5,a4,fec <debuginfo_eip+0x284>
     fc0:	fc842783          	lw	a5,-56(s0)
     fc4:	00279793          	slli	a5,a5,0x2
     fc8:	00279713          	slli	a4,a5,0x2
     fcc:	40f707b3          	sub	a5,a4,a5
     fd0:	fec42703          	lw	a4,-20(s0)
     fd4:	00f707b3          	add	a5,a4,a5
     fd8:	0067d783          	lhu	a5,6(a5)
     fdc:	00078713          	mv	a4,a5
     fe0:	fb842783          	lw	a5,-72(s0)
     fe4:	00e7a223          	sw	a4,4(a5)
     fe8:	0180006f          	j	1000 <debuginfo_eip+0x298>
     fec:	fff00793          	li	a5,-1
     ff0:	1580006f          	j	1148 <debuginfo_eip+0x3e0>
     ff4:	fcc42783          	lw	a5,-52(s0)
     ff8:	fff78793          	addi	a5,a5,-1
     ffc:	fcf42623          	sw	a5,-52(s0)
    1000:	fcc42703          	lw	a4,-52(s0)
    1004:	fdc42783          	lw	a5,-36(s0)
    1008:	06f74663          	blt	a4,a5,1074 <debuginfo_eip+0x30c>
    100c:	fcc42783          	lw	a5,-52(s0)
    1010:	00279793          	slli	a5,a5,0x2
    1014:	00279713          	slli	a4,a5,0x2
    1018:	40f707b3          	sub	a5,a4,a5
    101c:	fec42703          	lw	a4,-20(s0)
    1020:	00f707b3          	add	a5,a4,a5
    1024:	0047c703          	lbu	a4,4(a5)
    1028:	08400793          	li	a5,132
    102c:	04f70463          	beq	a4,a5,1074 <debuginfo_eip+0x30c>
    1030:	fcc42783          	lw	a5,-52(s0)
    1034:	00279793          	slli	a5,a5,0x2
    1038:	00279713          	slli	a4,a5,0x2
    103c:	40f707b3          	sub	a5,a4,a5
    1040:	fec42703          	lw	a4,-20(s0)
    1044:	00f707b3          	add	a5,a4,a5
    1048:	0047c703          	lbu	a4,4(a5)
    104c:	06400793          	li	a5,100
    1050:	faf712e3          	bne	a4,a5,ff4 <debuginfo_eip+0x28c>
    1054:	fcc42783          	lw	a5,-52(s0)
    1058:	00279793          	slli	a5,a5,0x2
    105c:	00279713          	slli	a4,a5,0x2
    1060:	40f707b3          	sub	a5,a4,a5
    1064:	fec42703          	lw	a4,-20(s0)
    1068:	00f707b3          	add	a5,a4,a5
    106c:	0087a783          	lw	a5,8(a5)
    1070:	f80782e3          	beqz	a5,ff4 <debuginfo_eip+0x28c>
    1074:	fcc42703          	lw	a4,-52(s0)
    1078:	fdc42783          	lw	a5,-36(s0)
    107c:	04f74e63          	blt	a4,a5,10d8 <debuginfo_eip+0x370>
    1080:	fcc42783          	lw	a5,-52(s0)
    1084:	00279793          	slli	a5,a5,0x2
    1088:	00279713          	slli	a4,a5,0x2
    108c:	40f707b3          	sub	a5,a4,a5
    1090:	fec42703          	lw	a4,-20(s0)
    1094:	00f707b3          	add	a5,a4,a5
    1098:	0007a783          	lw	a5,0(a5)
    109c:	fe042683          	lw	a3,-32(s0)
    10a0:	fe442703          	lw	a4,-28(s0)
    10a4:	40e68733          	sub	a4,a3,a4
    10a8:	02e7f863          	bleu	a4,a5,10d8 <debuginfo_eip+0x370>
    10ac:	fcc42783          	lw	a5,-52(s0)
    10b0:	00279793          	slli	a5,a5,0x2
    10b4:	00279713          	slli	a4,a5,0x2
    10b8:	40f707b3          	sub	a5,a4,a5
    10bc:	fec42703          	lw	a4,-20(s0)
    10c0:	00f707b3          	add	a5,a4,a5
    10c4:	0007a783          	lw	a5,0(a5)
    10c8:	fe442703          	lw	a4,-28(s0)
    10cc:	00f70733          	add	a4,a4,a5
    10d0:	fb842783          	lw	a5,-72(s0)
    10d4:	00e7a023          	sw	a4,0(a5)
    10d8:	fd442703          	lw	a4,-44(s0)
    10dc:	fd042783          	lw	a5,-48(s0)
    10e0:	06f75263          	ble	a5,a4,1144 <debuginfo_eip+0x3dc>
    10e4:	fd442783          	lw	a5,-44(s0)
    10e8:	00178793          	addi	a5,a5,1
    10ec:	fcf42623          	sw	a5,-52(s0)
    10f0:	0240006f          	j	1114 <debuginfo_eip+0x3ac>
    10f4:	fb842783          	lw	a5,-72(s0)
    10f8:	0147a783          	lw	a5,20(a5)
    10fc:	00178713          	addi	a4,a5,1
    1100:	fb842783          	lw	a5,-72(s0)
    1104:	00e7aa23          	sw	a4,20(a5)
    1108:	fcc42783          	lw	a5,-52(s0)
    110c:	00178793          	addi	a5,a5,1
    1110:	fcf42623          	sw	a5,-52(s0)
    1114:	fcc42703          	lw	a4,-52(s0)
    1118:	fd042783          	lw	a5,-48(s0)
    111c:	02f75463          	ble	a5,a4,1144 <debuginfo_eip+0x3dc>
    1120:	fcc42783          	lw	a5,-52(s0)
    1124:	00279793          	slli	a5,a5,0x2
    1128:	00279713          	slli	a4,a5,0x2
    112c:	40f707b3          	sub	a5,a4,a5
    1130:	fec42703          	lw	a4,-20(s0)
    1134:	00f707b3          	add	a5,a4,a5
    1138:	0047c703          	lbu	a4,4(a5)
    113c:	0a000793          	li	a5,160
    1140:	faf70ae3          	beq	a4,a5,10f4 <debuginfo_eip+0x38c>
    1144:	00000793          	li	a5,0
    1148:	00078513          	mv	a0,a5
    114c:	04c12083          	lw	ra,76(sp)
    1150:	04812403          	lw	s0,72(sp)
    1154:	05010113          	addi	sp,sp,80
    1158:	00008067          	ret

0000115c <print_kerninfo>:
    115c:	ff010113          	addi	sp,sp,-16
    1160:	00112623          	sw	ra,12(sp)
    1164:	00812423          	sw	s0,8(sp)
    1168:	01010413          	addi	s0,sp,16
    116c:	0000c7b7          	lui	a5,0xc
    1170:	a3878513          	addi	a0,a5,-1480 # ba38 <etext+0x104>
    1174:	e68ff0ef          	jal	7dc <cprintf>
    1178:	45400593          	li	a1,1108
    117c:	0000c7b7          	lui	a5,0xc
    1180:	a5478513          	addi	a0,a5,-1452 # ba54 <etext+0x120>
    1184:	e58ff0ef          	jal	7dc <cprintf>
    1188:	0000c7b7          	lui	a5,0xc
    118c:	93478593          	addi	a1,a5,-1740 # b934 <etext>
    1190:	0000c7b7          	lui	a5,0xc
    1194:	a6c78513          	addi	a0,a5,-1428 # ba6c <etext+0x138>
    1198:	e44ff0ef          	jal	7dc <cprintf>
    119c:	82018593          	addi	a1,gp,-2016 # e618 <edata>
    11a0:	0000c7b7          	lui	a5,0xc
    11a4:	a8478513          	addi	a0,a5,-1404 # ba84 <etext+0x150>
    11a8:	e34ff0ef          	jal	7dc <cprintf>
    11ac:	0000f7b7          	lui	a5,0xf
    11b0:	6c078593          	addi	a1,a5,1728 # f6c0 <__bss_end>
    11b4:	0000c7b7          	lui	a5,0xc
    11b8:	a9c78513          	addi	a0,a5,-1380 # ba9c <etext+0x168>
    11bc:	e20ff0ef          	jal	7dc <cprintf>
    11c0:	0000f7b7          	lui	a5,0xf
    11c4:	6c078793          	addi	a5,a5,1728 # f6c0 <__bss_end>
    11c8:	3ff78713          	addi	a4,a5,1023
    11cc:	45400793          	li	a5,1108
    11d0:	40f707b3          	sub	a5,a4,a5
    11d4:	41f7d713          	srai	a4,a5,0x1f
    11d8:	3ff77713          	andi	a4,a4,1023
    11dc:	00f707b3          	add	a5,a4,a5
    11e0:	40a7d793          	srai	a5,a5,0xa
    11e4:	00078593          	mv	a1,a5
    11e8:	0000c7b7          	lui	a5,0xc
    11ec:	ab478513          	addi	a0,a5,-1356 # bab4 <etext+0x180>
    11f0:	decff0ef          	jal	7dc <cprintf>
    11f4:	00000013          	nop
    11f8:	00c12083          	lw	ra,12(sp)
    11fc:	00812403          	lw	s0,8(sp)
    1200:	01010113          	addi	sp,sp,16
    1204:	00008067          	ret

00001208 <print_debuginfo>:
    1208:	ec010113          	addi	sp,sp,-320
    120c:	12112e23          	sw	ra,316(sp)
    1210:	12812c23          	sw	s0,312(sp)
    1214:	14010413          	addi	s0,sp,320
    1218:	eca42623          	sw	a0,-308(s0)
    121c:	fd440793          	addi	a5,s0,-44
    1220:	00078593          	mv	a1,a5
    1224:	ecc42503          	lw	a0,-308(s0)
    1228:	b41ff0ef          	jal	d68 <debuginfo_eip>
    122c:	00050793          	mv	a5,a0
    1230:	00078c63          	beqz	a5,1248 <print_debuginfo+0x40>
    1234:	ecc42583          	lw	a1,-308(s0)
    1238:	0000c7b7          	lui	a5,0xc
    123c:	ae078513          	addi	a0,a5,-1312 # bae0 <etext+0x1ac>
    1240:	d9cff0ef          	jal	7dc <cprintf>
    1244:	07c0006f          	j	12c0 <print_debuginfo+0xb8>
    1248:	fe042623          	sw	zero,-20(s0)
    124c:	0300006f          	j	127c <print_debuginfo+0x74>
    1250:	fdc42703          	lw	a4,-36(s0)
    1254:	fec42783          	lw	a5,-20(s0)
    1258:	00f707b3          	add	a5,a4,a5
    125c:	0007c703          	lbu	a4,0(a5)
    1260:	fec42783          	lw	a5,-20(s0)
    1264:	ff040693          	addi	a3,s0,-16
    1268:	00f687b3          	add	a5,a3,a5
    126c:	eee78223          	sb	a4,-284(a5)
    1270:	fec42783          	lw	a5,-20(s0)
    1274:	00178793          	addi	a5,a5,1
    1278:	fef42623          	sw	a5,-20(s0)
    127c:	fe042703          	lw	a4,-32(s0)
    1280:	fec42783          	lw	a5,-20(s0)
    1284:	fce7c6e3          	blt	a5,a4,1250 <print_debuginfo+0x48>
    1288:	fec42783          	lw	a5,-20(s0)
    128c:	ff040713          	addi	a4,s0,-16
    1290:	00f707b3          	add	a5,a4,a5
    1294:	ee078223          	sb	zero,-284(a5)
    1298:	fd442583          	lw	a1,-44(s0)
    129c:	fd842603          	lw	a2,-40(s0)
    12a0:	fe442783          	lw	a5,-28(s0)
    12a4:	ecc42703          	lw	a4,-308(s0)
    12a8:	40f70733          	sub	a4,a4,a5
    12ac:	ed440793          	addi	a5,s0,-300
    12b0:	00078693          	mv	a3,a5
    12b4:	0000c7b7          	lui	a5,0xc
    12b8:	afc78513          	addi	a0,a5,-1284 # bafc <etext+0x1c8>
    12bc:	d20ff0ef          	jal	7dc <cprintf>
    12c0:	00000013          	nop
    12c4:	13c12083          	lw	ra,316(sp)
    12c8:	13812403          	lw	s0,312(sp)
    12cc:	14010113          	addi	sp,sp,320
    12d0:	00008067          	ret

000012d4 <print_stackframe>:
    12d4:	fd010113          	addi	sp,sp,-48
    12d8:	02112623          	sw	ra,44(sp)
    12dc:	02812423          	sw	s0,40(sp)
    12e0:	03010413          	addi	s0,sp,48
    12e4:	00008793          	mv	a5,ra
    12e8:	fef42423          	sw	a5,-24(s0)
    12ec:	fe842783          	lw	a5,-24(s0)
    12f0:	00078813          	mv	a6,a5
    12f4:	00000893          	li	a7,0
    12f8:	ff042623          	sw	a6,-20(s0)
    12fc:	00000317          	auipc	t1,0x0
    1300:	00030793          	mv	a5,t1
    1304:	fef42023          	sw	a5,-32(s0)
    1308:	fe042783          	lw	a5,-32(s0)
    130c:	fef42223          	sw	a5,-28(s0)
    1310:	00040793          	mv	a5,s0
    1314:	fcf42c23          	sw	a5,-40(s0)
    1318:	fd842783          	lw	a5,-40(s0)
    131c:	00078513          	mv	a0,a5
    1320:	00000593          	li	a1,0
    1324:	fca42e23          	sw	a0,-36(s0)
    1328:	00010793          	mv	a5,sp
    132c:	fcf42823          	sw	a5,-48(s0)
    1330:	fd042783          	lw	a5,-48(s0)
    1334:	00078613          	mv	a2,a5
    1338:	00000693          	li	a3,0
    133c:	fcc42a23          	sw	a2,-44(s0)
    1340:	0000c7b7          	lui	a5,0xc
    1344:	b1078513          	addi	a0,a5,-1264 # bb10 <etext+0x1dc>
    1348:	c94ff0ef          	jal	7dc <cprintf>
    134c:	00000013          	nop
    1350:	02c12083          	lw	ra,44(sp)
    1354:	02812403          	lw	s0,40(sp)
    1358:	03010113          	addi	sp,sp,48
    135c:	00008067          	ret

00001360 <parse>:
    1360:	fd010113          	addi	sp,sp,-48
    1364:	02112623          	sw	ra,44(sp)
    1368:	02812423          	sw	s0,40(sp)
    136c:	03010413          	addi	s0,sp,48
    1370:	fca42e23          	sw	a0,-36(s0)
    1374:	fcb42c23          	sw	a1,-40(s0)
    1378:	fe042623          	sw	zero,-20(s0)
    137c:	0140006f          	j	1390 <parse+0x30>
    1380:	fdc42783          	lw	a5,-36(s0)
    1384:	00178713          	addi	a4,a5,1
    1388:	fce42e23          	sw	a4,-36(s0)
    138c:	00078023          	sb	zero,0(a5)
    1390:	fdc42783          	lw	a5,-36(s0)
    1394:	0007c783          	lbu	a5,0(a5)
    1398:	02078263          	beqz	a5,13bc <parse+0x5c>
    139c:	fdc42783          	lw	a5,-36(s0)
    13a0:	0007c783          	lbu	a5,0(a5)
    13a4:	00078593          	mv	a1,a5
    13a8:	0000c7b7          	lui	a5,0xc
    13ac:	bb078513          	addi	a0,a5,-1104 # bbb0 <etext+0x27c>
    13b0:	34d080ef          	jal	9efc <strchr>
    13b4:	00050793          	mv	a5,a0
    13b8:	fc0794e3          	bnez	a5,1380 <parse+0x20>
    13bc:	fdc42783          	lw	a5,-36(s0)
    13c0:	0007c783          	lbu	a5,0(a5)
    13c4:	08078063          	beqz	a5,1444 <parse+0xe4>
    13c8:	fec42703          	lw	a4,-20(s0)
    13cc:	00f00793          	li	a5,15
    13d0:	00f71a63          	bne	a4,a5,13e4 <parse+0x84>
    13d4:	01000593          	li	a1,16
    13d8:	0000c7b7          	lui	a5,0xc
    13dc:	bb878513          	addi	a0,a5,-1096 # bbb8 <etext+0x284>
    13e0:	bfcff0ef          	jal	7dc <cprintf>
    13e4:	fec42783          	lw	a5,-20(s0)
    13e8:	00178713          	addi	a4,a5,1
    13ec:	fee42623          	sw	a4,-20(s0)
    13f0:	00279793          	slli	a5,a5,0x2
    13f4:	fd842703          	lw	a4,-40(s0)
    13f8:	00f707b3          	add	a5,a4,a5
    13fc:	fdc42703          	lw	a4,-36(s0)
    1400:	00e7a023          	sw	a4,0(a5)
    1404:	0100006f          	j	1414 <parse+0xb4>
    1408:	fdc42783          	lw	a5,-36(s0)
    140c:	00178793          	addi	a5,a5,1
    1410:	fcf42e23          	sw	a5,-36(s0)
    1414:	fdc42783          	lw	a5,-36(s0)
    1418:	0007c783          	lbu	a5,0(a5)
    141c:	f60780e3          	beqz	a5,137c <parse+0x1c>
    1420:	fdc42783          	lw	a5,-36(s0)
    1424:	0007c783          	lbu	a5,0(a5)
    1428:	00078593          	mv	a1,a5
    142c:	0000c7b7          	lui	a5,0xc
    1430:	bb078513          	addi	a0,a5,-1104 # bbb0 <etext+0x27c>
    1434:	2c9080ef          	jal	9efc <strchr>
    1438:	00050793          	mv	a5,a0
    143c:	fc0786e3          	beqz	a5,1408 <parse+0xa8>
    1440:	f3dff06f          	j	137c <parse+0x1c>
    1444:	00000013          	nop
    1448:	fec42783          	lw	a5,-20(s0)
    144c:	00078513          	mv	a0,a5
    1450:	02c12083          	lw	ra,44(sp)
    1454:	02812403          	lw	s0,40(sp)
    1458:	03010113          	addi	sp,sp,48
    145c:	00008067          	ret

00001460 <runcmd>:
    1460:	f9010113          	addi	sp,sp,-112
    1464:	06112623          	sw	ra,108(sp)
    1468:	06812423          	sw	s0,104(sp)
    146c:	07010413          	addi	s0,sp,112
    1470:	f8a42e23          	sw	a0,-100(s0)
    1474:	f8b42c23          	sw	a1,-104(s0)
    1478:	fa840793          	addi	a5,s0,-88
    147c:	00078593          	mv	a1,a5
    1480:	f9c42503          	lw	a0,-100(s0)
    1484:	eddff0ef          	jal	1360 <parse>
    1488:	fea42423          	sw	a0,-24(s0)
    148c:	fe842783          	lw	a5,-24(s0)
    1490:	00079663          	bnez	a5,149c <runcmd+0x3c>
    1494:	00000793          	li	a5,0
    1498:	0c80006f          	j	1560 <runcmd+0x100>
    149c:	fe042623          	sw	zero,-20(s0)
    14a0:	09c0006f          	j	153c <runcmd+0xdc>
    14a4:	0000e6b7          	lui	a3,0xe
    14a8:	fec42783          	lw	a5,-20(s0)
    14ac:	00078713          	mv	a4,a5
    14b0:	00271793          	slli	a5,a4,0x2
    14b4:	00078713          	mv	a4,a5
    14b8:	00271793          	slli	a5,a4,0x2
    14bc:	40e787b3          	sub	a5,a5,a4
    14c0:	00068713          	mv	a4,a3
    14c4:	00e787b3          	add	a5,a5,a4
    14c8:	0007a783          	lw	a5,0(a5)
    14cc:	fa842703          	lw	a4,-88(s0)
    14d0:	00070593          	mv	a1,a4
    14d4:	00078513          	mv	a0,a5
    14d8:	10d080ef          	jal	9de4 <strcmp>
    14dc:	00050793          	mv	a5,a0
    14e0:	04079863          	bnez	a5,1530 <runcmd+0xd0>
    14e4:	0000e7b7          	lui	a5,0xe
    14e8:	fec42683          	lw	a3,-20(s0)
    14ec:	00078713          	mv	a4,a5
    14f0:	00068793          	mv	a5,a3
    14f4:	00279793          	slli	a5,a5,0x2
    14f8:	00279693          	slli	a3,a5,0x2
    14fc:	40f687b3          	sub	a5,a3,a5
    1500:	00f707b3          	add	a5,a4,a5
    1504:	0087a683          	lw	a3,8(a5) # e008 <commands+0x8>
    1508:	fe842783          	lw	a5,-24(s0)
    150c:	fff78713          	addi	a4,a5,-1
    1510:	fa840793          	addi	a5,s0,-88
    1514:	00478793          	addi	a5,a5,4
    1518:	f9842603          	lw	a2,-104(s0)
    151c:	00078593          	mv	a1,a5
    1520:	00070513          	mv	a0,a4
    1524:	000680e7          	jalr	a3
    1528:	00050793          	mv	a5,a0
    152c:	0340006f          	j	1560 <runcmd+0x100>
    1530:	fec42783          	lw	a5,-20(s0)
    1534:	00178793          	addi	a5,a5,1
    1538:	fef42623          	sw	a5,-20(s0)
    153c:	fec42703          	lw	a4,-20(s0)
    1540:	00200793          	li	a5,2
    1544:	f6e7f0e3          	bleu	a4,a5,14a4 <runcmd+0x44>
    1548:	fa842783          	lw	a5,-88(s0)
    154c:	00078593          	mv	a1,a5
    1550:	0000c7b7          	lui	a5,0xc
    1554:	bd878513          	addi	a0,a5,-1064 # bbd8 <etext+0x2a4>
    1558:	a84ff0ef          	jal	7dc <cprintf>
    155c:	00000793          	li	a5,0
    1560:	00078513          	mv	a0,a5
    1564:	06c12083          	lw	ra,108(sp)
    1568:	06812403          	lw	s0,104(sp)
    156c:	07010113          	addi	sp,sp,112
    1570:	00008067          	ret

00001574 <kmonitor>:
    1574:	fd010113          	addi	sp,sp,-48
    1578:	02112623          	sw	ra,44(sp)
    157c:	02812423          	sw	s0,40(sp)
    1580:	03010413          	addi	s0,sp,48
    1584:	fca42e23          	sw	a0,-36(s0)
    1588:	0000c7b7          	lui	a5,0xc
    158c:	bf078513          	addi	a0,a5,-1040 # bbf0 <etext+0x2bc>
    1590:	a4cff0ef          	jal	7dc <cprintf>
    1594:	0000c7b7          	lui	a5,0xc
    1598:	c1878513          	addi	a0,a5,-1000 # bc18 <etext+0x2e4>
    159c:	a40ff0ef          	jal	7dc <cprintf>
    15a0:	fdc42783          	lw	a5,-36(s0)
    15a4:	00078663          	beqz	a5,15b0 <kmonitor+0x3c>
    15a8:	fdc42503          	lw	a0,-36(s0)
    15ac:	269010ef          	jal	3014 <print_trapframe>
    15b0:	0000c7b7          	lui	a5,0xc
    15b4:	c4078513          	addi	a0,a5,-960 # bc40 <etext+0x30c>
    15b8:	b68ff0ef          	jal	920 <readline>
    15bc:	fea42623          	sw	a0,-20(s0)
    15c0:	fec42783          	lw	a5,-20(s0)
    15c4:	fe0786e3          	beqz	a5,15b0 <kmonitor+0x3c>
    15c8:	fdc42583          	lw	a1,-36(s0)
    15cc:	fec42503          	lw	a0,-20(s0)
    15d0:	e91ff0ef          	jal	1460 <runcmd>
    15d4:	00050793          	mv	a5,a0
    15d8:	0007c463          	bltz	a5,15e0 <kmonitor+0x6c>
    15dc:	fd5ff06f          	j	15b0 <kmonitor+0x3c>
    15e0:	00000013          	nop
    15e4:	00000013          	nop
    15e8:	02c12083          	lw	ra,44(sp)
    15ec:	02812403          	lw	s0,40(sp)
    15f0:	03010113          	addi	sp,sp,48
    15f4:	00008067          	ret

000015f8 <mon_help>:
    15f8:	fd010113          	addi	sp,sp,-48
    15fc:	02112623          	sw	ra,44(sp)
    1600:	02812423          	sw	s0,40(sp)
    1604:	03010413          	addi	s0,sp,48
    1608:	fca42e23          	sw	a0,-36(s0)
    160c:	fcb42c23          	sw	a1,-40(s0)
    1610:	fcc42a23          	sw	a2,-44(s0)
    1614:	fe042623          	sw	zero,-20(s0)
    1618:	06c0006f          	j	1684 <mon_help+0x8c>
    161c:	0000e6b7          	lui	a3,0xe
    1620:	fec42783          	lw	a5,-20(s0)
    1624:	00078713          	mv	a4,a5
    1628:	00271793          	slli	a5,a4,0x2
    162c:	00078713          	mv	a4,a5
    1630:	00271793          	slli	a5,a4,0x2
    1634:	40e787b3          	sub	a5,a5,a4
    1638:	00068713          	mv	a4,a3
    163c:	00e787b3          	add	a5,a5,a4
    1640:	0007a583          	lw	a1,0(a5)
    1644:	0000e7b7          	lui	a5,0xe
    1648:	fec42683          	lw	a3,-20(s0)
    164c:	00078713          	mv	a4,a5
    1650:	00068793          	mv	a5,a3
    1654:	00279793          	slli	a5,a5,0x2
    1658:	00279693          	slli	a3,a5,0x2
    165c:	40f687b3          	sub	a5,a3,a5
    1660:	00f707b3          	add	a5,a4,a5
    1664:	0047a783          	lw	a5,4(a5) # e004 <commands+0x4>
    1668:	00078613          	mv	a2,a5
    166c:	0000c7b7          	lui	a5,0xc
    1670:	c4478513          	addi	a0,a5,-956 # bc44 <etext+0x310>
    1674:	968ff0ef          	jal	7dc <cprintf>
    1678:	fec42783          	lw	a5,-20(s0)
    167c:	00178793          	addi	a5,a5,1
    1680:	fef42623          	sw	a5,-20(s0)
    1684:	fec42703          	lw	a4,-20(s0)
    1688:	00200793          	li	a5,2
    168c:	f8e7f8e3          	bleu	a4,a5,161c <mon_help+0x24>
    1690:	00000793          	li	a5,0
    1694:	00078513          	mv	a0,a5
    1698:	02c12083          	lw	ra,44(sp)
    169c:	02812403          	lw	s0,40(sp)
    16a0:	03010113          	addi	sp,sp,48
    16a4:	00008067          	ret

000016a8 <mon_kerninfo>:
    16a8:	fe010113          	addi	sp,sp,-32
    16ac:	00112e23          	sw	ra,28(sp)
    16b0:	00812c23          	sw	s0,24(sp)
    16b4:	02010413          	addi	s0,sp,32
    16b8:	fea42623          	sw	a0,-20(s0)
    16bc:	feb42423          	sw	a1,-24(s0)
    16c0:	fec42223          	sw	a2,-28(s0)
    16c4:	a99ff0ef          	jal	115c <print_kerninfo>
    16c8:	00000793          	li	a5,0
    16cc:	00078513          	mv	a0,a5
    16d0:	01c12083          	lw	ra,28(sp)
    16d4:	01812403          	lw	s0,24(sp)
    16d8:	02010113          	addi	sp,sp,32
    16dc:	00008067          	ret

000016e0 <mon_backtrace>:
    16e0:	fe010113          	addi	sp,sp,-32
    16e4:	00112e23          	sw	ra,28(sp)
    16e8:	00812c23          	sw	s0,24(sp)
    16ec:	02010413          	addi	s0,sp,32
    16f0:	fea42623          	sw	a0,-20(s0)
    16f4:	feb42423          	sw	a1,-24(s0)
    16f8:	fec42223          	sw	a2,-28(s0)
    16fc:	bd9ff0ef          	jal	12d4 <print_stackframe>
    1700:	00000793          	li	a5,0
    1704:	00078513          	mv	a0,a5
    1708:	01c12083          	lw	ra,28(sp)
    170c:	01812403          	lw	s0,24(sp)
    1710:	02010113          	addi	sp,sp,32
    1714:	00008067          	ret

00001718 <ide_wait_ready>:
    1718:	fd010113          	addi	sp,sp,-48
    171c:	02812623          	sw	s0,44(sp)
    1720:	03010413          	addi	s0,sp,48
    1724:	00050793          	mv	a5,a0
    1728:	fcb42c23          	sw	a1,-40(s0)
    172c:	fcf41f23          	sh	a5,-34(s0)
    1730:	00000013          	nop
    1734:	fde45783          	lhu	a5,-34(s0)
    1738:	00778793          	addi	a5,a5,7
    173c:	01079793          	slli	a5,a5,0x10
    1740:	0107d793          	srli	a5,a5,0x10
    1744:	fef41523          	sh	a5,-22(s0)
    1748:	fe944783          	lbu	a5,-23(s0)
    174c:	fef42623          	sw	a5,-20(s0)
    1750:	fec42783          	lw	a5,-20(s0)
    1754:	0807f793          	andi	a5,a5,128
    1758:	fc079ee3          	bnez	a5,1734 <ide_wait_ready+0x1c>
    175c:	fd842783          	lw	a5,-40(s0)
    1760:	00078c63          	beqz	a5,1778 <ide_wait_ready+0x60>
    1764:	fec42783          	lw	a5,-20(s0)
    1768:	0217f793          	andi	a5,a5,33
    176c:	00078663          	beqz	a5,1778 <ide_wait_ready+0x60>
    1770:	fff00793          	li	a5,-1
    1774:	0080006f          	j	177c <ide_wait_ready+0x64>
    1778:	00000793          	li	a5,0
    177c:	00078513          	mv	a0,a5
    1780:	02c12403          	lw	s0,44(sp)
    1784:	03010113          	addi	sp,sp,48
    1788:	00008067          	ret

0000178c <ide_init>:
    178c:	dc010113          	addi	sp,sp,-576
    1790:	22112e23          	sw	ra,572(sp)
    1794:	22812c23          	sw	s0,568(sp)
    1798:	24010413          	addi	s0,sp,576
    179c:	fe041723          	sh	zero,-18(s0)
    17a0:	3380006f          	j	1ad8 <ide_init+0x34c>
    17a4:	fee45783          	lhu	a5,-18(s0)
    17a8:	00078713          	mv	a4,a5
    17ac:	00371793          	slli	a5,a4,0x3
    17b0:	00078713          	mv	a4,a5
    17b4:	00371793          	slli	a5,a4,0x3
    17b8:	40e787b3          	sub	a5,a5,a4
    17bc:	c2818713          	addi	a4,gp,-984 # ea20 <ide_devices>
    17c0:	00e787b3          	add	a5,a5,a4
    17c4:	00078023          	sb	zero,0(a5)
    17c8:	fee45783          	lhu	a5,-18(s0)
    17cc:	0017d793          	srli	a5,a5,0x1
    17d0:	01079793          	slli	a5,a5,0x10
    17d4:	0107d793          	srli	a5,a5,0x10
    17d8:	00078713          	mv	a4,a5
    17dc:	00271713          	slli	a4,a4,0x2
    17e0:	80018793          	addi	a5,gp,-2048 # e5f8 <__sbss_end>
    17e4:	00f707b3          	add	a5,a4,a5
    17e8:	0007d783          	lhu	a5,0(a5)
    17ec:	fef41123          	sh	a5,-30(s0)
    17f0:	fe245783          	lhu	a5,-30(s0)
    17f4:	00000593          	li	a1,0
    17f8:	00078513          	mv	a0,a5
    17fc:	f1dff0ef          	jal	1718 <ide_wait_ready>
    1800:	fe245783          	lhu	a5,-30(s0)
    1804:	00678793          	addi	a5,a5,6
    1808:	01079713          	slli	a4,a5,0x10
    180c:	01075713          	srli	a4,a4,0x10
    1810:	fee45783          	lhu	a5,-18(s0)
    1814:	0017f793          	andi	a5,a5,1
    1818:	00479793          	slli	a5,a5,0x4
    181c:	01879793          	slli	a5,a5,0x18
    1820:	4187d793          	srai	a5,a5,0x18
    1824:	fe07e793          	ori	a5,a5,-32
    1828:	01879793          	slli	a5,a5,0x18
    182c:	4187d793          	srai	a5,a5,0x18
    1830:	0ff7f793          	andi	a5,a5,255
    1834:	fee41023          	sh	a4,-32(s0)
    1838:	fcf401a3          	sb	a5,-61(s0)
    183c:	fe245783          	lhu	a5,-30(s0)
    1840:	00000593          	li	a1,0
    1844:	00078513          	mv	a0,a5
    1848:	ed1ff0ef          	jal	1718 <ide_wait_ready>
    184c:	fe245783          	lhu	a5,-30(s0)
    1850:	00778793          	addi	a5,a5,7
    1854:	01079793          	slli	a5,a5,0x10
    1858:	0107d793          	srli	a5,a5,0x10
    185c:	fcf41f23          	sh	a5,-34(s0)
    1860:	fec00793          	li	a5,-20
    1864:	fcf40223          	sb	a5,-60(s0)
    1868:	fe245783          	lhu	a5,-30(s0)
    186c:	00000593          	li	a1,0
    1870:	00078513          	mv	a0,a5
    1874:	ea5ff0ef          	jal	1718 <ide_wait_ready>
    1878:	fe245783          	lhu	a5,-30(s0)
    187c:	00778793          	addi	a5,a5,7
    1880:	01079793          	slli	a5,a5,0x10
    1884:	0107d793          	srli	a5,a5,0x10
    1888:	fcf41323          	sh	a5,-58(s0)
    188c:	fc544783          	lbu	a5,-59(s0)
    1890:	22078c63          	beqz	a5,1ac8 <ide_init+0x33c>
    1894:	fe245783          	lhu	a5,-30(s0)
    1898:	00100593          	li	a1,1
    189c:	00078513          	mv	a0,a5
    18a0:	e79ff0ef          	jal	1718 <ide_wait_ready>
    18a4:	00050793          	mv	a5,a0
    18a8:	22079063          	bnez	a5,1ac8 <ide_init+0x33c>
    18ac:	fee45783          	lhu	a5,-18(s0)
    18b0:	00078713          	mv	a4,a5
    18b4:	00371793          	slli	a5,a4,0x3
    18b8:	00078713          	mv	a4,a5
    18bc:	00371793          	slli	a5,a4,0x3
    18c0:	40e787b3          	sub	a5,a5,a4
    18c4:	c2818713          	addi	a4,gp,-984 # ea20 <ide_devices>
    18c8:	00e787b3          	add	a5,a5,a4
    18cc:	00100713          	li	a4,1
    18d0:	00e78023          	sb	a4,0(a5)
    18d4:	dc040793          	addi	a5,s0,-576
    18d8:	fcf42c23          	sw	a5,-40(s0)
    18dc:	fd842783          	lw	a5,-40(s0)
    18e0:	0a47a783          	lw	a5,164(a5)
    18e4:	fcf42a23          	sw	a5,-44(s0)
    18e8:	fd442703          	lw	a4,-44(s0)
    18ec:	040007b7          	lui	a5,0x4000
    18f0:	00f777b3          	and	a5,a4,a5
    18f4:	00078a63          	beqz	a5,1908 <ide_init+0x17c>
    18f8:	fd842783          	lw	a5,-40(s0)
    18fc:	0c87a783          	lw	a5,200(a5) # 40000c8 <realend+0x3f900c8>
    1900:	fef42423          	sw	a5,-24(s0)
    1904:	0100006f          	j	1914 <ide_init+0x188>
    1908:	fd842783          	lw	a5,-40(s0)
    190c:	0787a783          	lw	a5,120(a5)
    1910:	fef42423          	sw	a5,-24(s0)
    1914:	fee45683          	lhu	a3,-18(s0)
    1918:	c2818713          	addi	a4,gp,-984 # ea20 <ide_devices>
    191c:	00068793          	mv	a5,a3
    1920:	00379793          	slli	a5,a5,0x3
    1924:	00379693          	slli	a3,a5,0x3
    1928:	40f687b3          	sub	a5,a3,a5
    192c:	00f707b3          	add	a5,a4,a5
    1930:	fd442703          	lw	a4,-44(s0)
    1934:	00e7a223          	sw	a4,4(a5)
    1938:	fee45683          	lhu	a3,-18(s0)
    193c:	c2818713          	addi	a4,gp,-984 # ea20 <ide_devices>
    1940:	00068793          	mv	a5,a3
    1944:	00379793          	slli	a5,a5,0x3
    1948:	00379693          	slli	a3,a5,0x3
    194c:	40f687b3          	sub	a5,a3,a5
    1950:	00f707b3          	add	a5,a4,a5
    1954:	fe842703          	lw	a4,-24(s0)
    1958:	00e7a423          	sw	a4,8(a5)
    195c:	fd842783          	lw	a5,-40(s0)
    1960:	06278793          	addi	a5,a5,98
    1964:	0007d783          	lhu	a5,0(a5)
    1968:	2007f793          	andi	a5,a5,512
    196c:	02079263          	bnez	a5,1990 <ide_init+0x204>
    1970:	0000c7b7          	lui	a5,0xc
    1974:	c5078693          	addi	a3,a5,-944 # bc50 <etext+0x31c>
    1978:	0000c7b7          	lui	a5,0xc
    197c:	c9478613          	addi	a2,a5,-876 # bc94 <etext+0x360>
    1980:	07d00593          	li	a1,125
    1984:	0000c7b7          	lui	a5,0xc
    1988:	cac78513          	addi	a0,a5,-852 # bcac <etext+0x378>
    198c:	89cff0ef          	jal	a28 <__panic>
    1990:	fee45783          	lhu	a5,-18(s0)
    1994:	00078713          	mv	a4,a5
    1998:	00371793          	slli	a5,a4,0x3
    199c:	00078713          	mv	a4,a5
    19a0:	00371793          	slli	a5,a4,0x3
    19a4:	40e787b3          	sub	a5,a5,a4
    19a8:	c2818713          	addi	a4,gp,-984 # ea20 <ide_devices>
    19ac:	00e787b3          	add	a5,a5,a4
    19b0:	00c78793          	addi	a5,a5,12
    19b4:	fcf42823          	sw	a5,-48(s0)
    19b8:	fd842783          	lw	a5,-40(s0)
    19bc:	03678793          	addi	a5,a5,54
    19c0:	fcf42623          	sw	a5,-52(s0)
    19c4:	02800793          	li	a5,40
    19c8:	fcf42423          	sw	a5,-56(s0)
    19cc:	fe042223          	sw	zero,-28(s0)
    19d0:	0580006f          	j	1a28 <ide_init+0x29c>
    19d4:	fd042703          	lw	a4,-48(s0)
    19d8:	fe442783          	lw	a5,-28(s0)
    19dc:	00f707b3          	add	a5,a4,a5
    19e0:	fe442703          	lw	a4,-28(s0)
    19e4:	00170713          	addi	a4,a4,1
    19e8:	fcc42683          	lw	a3,-52(s0)
    19ec:	00e68733          	add	a4,a3,a4
    19f0:	00074703          	lbu	a4,0(a4)
    19f4:	00e78023          	sb	a4,0(a5)
    19f8:	fe442783          	lw	a5,-28(s0)
    19fc:	00178793          	addi	a5,a5,1
    1a00:	fd042703          	lw	a4,-48(s0)
    1a04:	00f707b3          	add	a5,a4,a5
    1a08:	fcc42683          	lw	a3,-52(s0)
    1a0c:	fe442703          	lw	a4,-28(s0)
    1a10:	00e68733          	add	a4,a3,a4
    1a14:	00074703          	lbu	a4,0(a4)
    1a18:	00e78023          	sb	a4,0(a5)
    1a1c:	fe442783          	lw	a5,-28(s0)
    1a20:	00278793          	addi	a5,a5,2
    1a24:	fef42223          	sw	a5,-28(s0)
    1a28:	fe442703          	lw	a4,-28(s0)
    1a2c:	fc842783          	lw	a5,-56(s0)
    1a30:	faf762e3          	bltu	a4,a5,19d4 <ide_init+0x248>
    1a34:	fd042703          	lw	a4,-48(s0)
    1a38:	fe442783          	lw	a5,-28(s0)
    1a3c:	00f707b3          	add	a5,a4,a5
    1a40:	00078023          	sb	zero,0(a5)
    1a44:	fe442783          	lw	a5,-28(s0)
    1a48:	fff78713          	addi	a4,a5,-1
    1a4c:	fee42223          	sw	a4,-28(s0)
    1a50:	00078e63          	beqz	a5,1a6c <ide_init+0x2e0>
    1a54:	fd042703          	lw	a4,-48(s0)
    1a58:	fe442783          	lw	a5,-28(s0)
    1a5c:	00f707b3          	add	a5,a4,a5
    1a60:	0007c703          	lbu	a4,0(a5)
    1a64:	02000793          	li	a5,32
    1a68:	fcf706e3          	beq	a4,a5,1a34 <ide_init+0x2a8>
    1a6c:	fee45583          	lhu	a1,-18(s0)
    1a70:	fee45683          	lhu	a3,-18(s0)
    1a74:	c2818713          	addi	a4,gp,-984 # ea20 <ide_devices>
    1a78:	00068793          	mv	a5,a3
    1a7c:	00379793          	slli	a5,a5,0x3
    1a80:	00379693          	slli	a3,a5,0x3
    1a84:	40f687b3          	sub	a5,a3,a5
    1a88:	00f707b3          	add	a5,a4,a5
    1a8c:	0087a603          	lw	a2,8(a5)
    1a90:	fee45783          	lhu	a5,-18(s0)
    1a94:	00078713          	mv	a4,a5
    1a98:	00371793          	slli	a5,a4,0x3
    1a9c:	00078713          	mv	a4,a5
    1aa0:	00371793          	slli	a5,a4,0x3
    1aa4:	40e787b3          	sub	a5,a5,a4
    1aa8:	c2818713          	addi	a4,gp,-984 # ea20 <ide_devices>
    1aac:	00e787b3          	add	a5,a5,a4
    1ab0:	00c78793          	addi	a5,a5,12
    1ab4:	00078693          	mv	a3,a5
    1ab8:	0000c7b7          	lui	a5,0xc
    1abc:	cc078513          	addi	a0,a5,-832 # bcc0 <etext+0x38c>
    1ac0:	d1dfe0ef          	jal	7dc <cprintf>
    1ac4:	0080006f          	j	1acc <ide_init+0x340>
    1ac8:	00000013          	nop
    1acc:	fee45783          	lhu	a5,-18(s0)
    1ad0:	00178793          	addi	a5,a5,1
    1ad4:	fef41723          	sh	a5,-18(s0)
    1ad8:	fee45703          	lhu	a4,-18(s0)
    1adc:	00300793          	li	a5,3
    1ae0:	cce7f2e3          	bleu	a4,a5,17a4 <ide_init+0x18>
    1ae4:	00e00513          	li	a0,14
    1ae8:	244010ef          	jal	2d2c <pic_enable>
    1aec:	00f00513          	li	a0,15
    1af0:	23c010ef          	jal	2d2c <pic_enable>
    1af4:	00000013          	nop
    1af8:	23c12083          	lw	ra,572(sp)
    1afc:	23812403          	lw	s0,568(sp)
    1b00:	24010113          	addi	sp,sp,576
    1b04:	00008067          	ret

00001b08 <ide_device_valid>:
    1b08:	fe010113          	addi	sp,sp,-32
    1b0c:	00812e23          	sw	s0,28(sp)
    1b10:	02010413          	addi	s0,sp,32
    1b14:	00050793          	mv	a5,a0
    1b18:	fef41723          	sh	a5,-18(s0)
    1b1c:	fee45703          	lhu	a4,-18(s0)
    1b20:	00300793          	li	a5,3
    1b24:	02e7ea63          	bltu	a5,a4,1b58 <ide_device_valid+0x50>
    1b28:	fee45783          	lhu	a5,-18(s0)
    1b2c:	00078713          	mv	a4,a5
    1b30:	00371793          	slli	a5,a4,0x3
    1b34:	00078713          	mv	a4,a5
    1b38:	00371793          	slli	a5,a4,0x3
    1b3c:	40e787b3          	sub	a5,a5,a4
    1b40:	c2818713          	addi	a4,gp,-984 # ea20 <ide_devices>
    1b44:	00e787b3          	add	a5,a5,a4
    1b48:	0007c783          	lbu	a5,0(a5)
    1b4c:	00078663          	beqz	a5,1b58 <ide_device_valid+0x50>
    1b50:	00100793          	li	a5,1
    1b54:	0080006f          	j	1b5c <ide_device_valid+0x54>
    1b58:	00000793          	li	a5,0
    1b5c:	00078513          	mv	a0,a5
    1b60:	01c12403          	lw	s0,28(sp)
    1b64:	02010113          	addi	sp,sp,32
    1b68:	00008067          	ret

00001b6c <ide_device_size>:
    1b6c:	fe010113          	addi	sp,sp,-32
    1b70:	00112e23          	sw	ra,28(sp)
    1b74:	00812c23          	sw	s0,24(sp)
    1b78:	02010413          	addi	s0,sp,32
    1b7c:	00050793          	mv	a5,a0
    1b80:	fef41723          	sh	a5,-18(s0)
    1b84:	fee45783          	lhu	a5,-18(s0)
    1b88:	00078513          	mv	a0,a5
    1b8c:	f7dff0ef          	jal	1b08 <ide_device_valid>
    1b90:	00050793          	mv	a5,a0
    1b94:	02078463          	beqz	a5,1bbc <ide_device_size+0x50>
    1b98:	fee45683          	lhu	a3,-18(s0)
    1b9c:	c2818713          	addi	a4,gp,-984 # ea20 <ide_devices>
    1ba0:	00068793          	mv	a5,a3
    1ba4:	00379793          	slli	a5,a5,0x3
    1ba8:	00379693          	slli	a3,a5,0x3
    1bac:	40f687b3          	sub	a5,a3,a5
    1bb0:	00f707b3          	add	a5,a4,a5
    1bb4:	0087a783          	lw	a5,8(a5)
    1bb8:	0080006f          	j	1bc0 <ide_device_size+0x54>
    1bbc:	00000793          	li	a5,0
    1bc0:	00078513          	mv	a0,a5
    1bc4:	01c12083          	lw	ra,28(sp)
    1bc8:	01812403          	lw	s0,24(sp)
    1bcc:	02010113          	addi	sp,sp,32
    1bd0:	00008067          	ret

00001bd4 <ide_read_secs>:
    1bd4:	fc010113          	addi	sp,sp,-64
    1bd8:	02112e23          	sw	ra,60(sp)
    1bdc:	02812c23          	sw	s0,56(sp)
    1be0:	04010413          	addi	s0,sp,64
    1be4:	00050793          	mv	a5,a0
    1be8:	fcb42423          	sw	a1,-56(s0)
    1bec:	fcc42223          	sw	a2,-60(s0)
    1bf0:	fcd42023          	sw	a3,-64(s0)
    1bf4:	fcf41723          	sh	a5,-50(s0)
    1bf8:	fc042703          	lw	a4,-64(s0)
    1bfc:	08000793          	li	a5,128
    1c00:	02e7ec63          	bltu	a5,a4,1c38 <ide_read_secs+0x64>
    1c04:	fce45703          	lhu	a4,-50(s0)
    1c08:	00300793          	li	a5,3
    1c0c:	02e7e663          	bltu	a5,a4,1c38 <ide_read_secs+0x64>
    1c10:	fce45783          	lhu	a5,-50(s0)
    1c14:	00078713          	mv	a4,a5
    1c18:	00371793          	slli	a5,a4,0x3
    1c1c:	00078713          	mv	a4,a5
    1c20:	00371793          	slli	a5,a4,0x3
    1c24:	40e787b3          	sub	a5,a5,a4
    1c28:	c2818713          	addi	a4,gp,-984 # ea20 <ide_devices>
    1c2c:	00e787b3          	add	a5,a5,a4
    1c30:	0007c783          	lbu	a5,0(a5)
    1c34:	02079263          	bnez	a5,1c58 <ide_read_secs+0x84>
    1c38:	0000c7b7          	lui	a5,0xc
    1c3c:	ce078693          	addi	a3,a5,-800 # bce0 <etext+0x3ac>
    1c40:	0000c7b7          	lui	a5,0xc
    1c44:	c9478613          	addi	a2,a5,-876 # bc94 <etext+0x360>
    1c48:	09f00593          	li	a1,159
    1c4c:	0000c7b7          	lui	a5,0xc
    1c50:	cac78513          	addi	a0,a5,-852 # bcac <etext+0x378>
    1c54:	dd5fe0ef          	jal	a28 <__panic>
    1c58:	fc842703          	lw	a4,-56(s0)
    1c5c:	100007b7          	lui	a5,0x10000
    1c60:	00f77c63          	bleu	a5,a4,1c78 <ide_read_secs+0xa4>
    1c64:	fc842703          	lw	a4,-56(s0)
    1c68:	fc042783          	lw	a5,-64(s0)
    1c6c:	00f70733          	add	a4,a4,a5
    1c70:	100007b7          	lui	a5,0x10000
    1c74:	02e7f263          	bleu	a4,a5,1c98 <ide_read_secs+0xc4>
    1c78:	0000c7b7          	lui	a5,0xc
    1c7c:	d0878693          	addi	a3,a5,-760 # bd08 <etext+0x3d4>
    1c80:	0000c7b7          	lui	a5,0xc
    1c84:	c9478613          	addi	a2,a5,-876 # bc94 <etext+0x360>
    1c88:	0a000593          	li	a1,160
    1c8c:	0000c7b7          	lui	a5,0xc
    1c90:	cac78513          	addi	a0,a5,-852 # bcac <etext+0x378>
    1c94:	d95fe0ef          	jal	a28 <__panic>
    1c98:	fce45783          	lhu	a5,-50(s0)
    1c9c:	0017d793          	srli	a5,a5,0x1
    1ca0:	01079793          	slli	a5,a5,0x10
    1ca4:	0107d793          	srli	a5,a5,0x10
    1ca8:	00078713          	mv	a4,a5
    1cac:	00271713          	slli	a4,a4,0x2
    1cb0:	80018793          	addi	a5,gp,-2048 # e5f8 <__sbss_end>
    1cb4:	00f707b3          	add	a5,a4,a5
    1cb8:	0007d783          	lhu	a5,0(a5)
    1cbc:	fef41523          	sh	a5,-22(s0)
    1cc0:	fce45783          	lhu	a5,-50(s0)
    1cc4:	0017d793          	srli	a5,a5,0x1
    1cc8:	01079793          	slli	a5,a5,0x10
    1ccc:	0107d793          	srli	a5,a5,0x10
    1cd0:	00078693          	mv	a3,a5
    1cd4:	80018713          	addi	a4,gp,-2048 # e5f8 <__sbss_end>
    1cd8:	00269793          	slli	a5,a3,0x2
    1cdc:	00f707b3          	add	a5,a4,a5
    1ce0:	0027d783          	lhu	a5,2(a5)
    1ce4:	fef41423          	sh	a5,-24(s0)
    1ce8:	fea45783          	lhu	a5,-22(s0)
    1cec:	00000593          	li	a1,0
    1cf0:	00078513          	mv	a0,a5
    1cf4:	a25ff0ef          	jal	1718 <ide_wait_ready>
    1cf8:	fe845783          	lhu	a5,-24(s0)
    1cfc:	00278793          	addi	a5,a5,2
    1d00:	01079793          	slli	a5,a5,0x10
    1d04:	0107d793          	srli	a5,a5,0x10
    1d08:	fef41323          	sh	a5,-26(s0)
    1d0c:	fc0409a3          	sb	zero,-45(s0)
    1d10:	fea45783          	lhu	a5,-22(s0)
    1d14:	00278793          	addi	a5,a5,2
    1d18:	01079713          	slli	a4,a5,0x10
    1d1c:	01075713          	srli	a4,a4,0x10
    1d20:	fc042783          	lw	a5,-64(s0)
    1d24:	0ff7f793          	andi	a5,a5,255
    1d28:	fee41223          	sh	a4,-28(s0)
    1d2c:	fcf40a23          	sb	a5,-44(s0)
    1d30:	fea45783          	lhu	a5,-22(s0)
    1d34:	00378793          	addi	a5,a5,3
    1d38:	01079713          	slli	a4,a5,0x10
    1d3c:	01075713          	srli	a4,a4,0x10
    1d40:	fc842783          	lw	a5,-56(s0)
    1d44:	0ff7f793          	andi	a5,a5,255
    1d48:	fee41123          	sh	a4,-30(s0)
    1d4c:	fcf40aa3          	sb	a5,-43(s0)
    1d50:	fea45783          	lhu	a5,-22(s0)
    1d54:	00478793          	addi	a5,a5,4
    1d58:	01079713          	slli	a4,a5,0x10
    1d5c:	01075713          	srli	a4,a4,0x10
    1d60:	fc842783          	lw	a5,-56(s0)
    1d64:	0087d793          	srli	a5,a5,0x8
    1d68:	0ff7f793          	andi	a5,a5,255
    1d6c:	fee41023          	sh	a4,-32(s0)
    1d70:	fcf40b23          	sb	a5,-42(s0)
    1d74:	fea45783          	lhu	a5,-22(s0)
    1d78:	00578793          	addi	a5,a5,5
    1d7c:	01079713          	slli	a4,a5,0x10
    1d80:	01075713          	srli	a4,a4,0x10
    1d84:	fc842783          	lw	a5,-56(s0)
    1d88:	0107d793          	srli	a5,a5,0x10
    1d8c:	0ff7f793          	andi	a5,a5,255
    1d90:	fce41f23          	sh	a4,-34(s0)
    1d94:	fcf40ba3          	sb	a5,-41(s0)
    1d98:	fea45783          	lhu	a5,-22(s0)
    1d9c:	00678793          	addi	a5,a5,6
    1da0:	01079713          	slli	a4,a5,0x10
    1da4:	01075713          	srli	a4,a4,0x10
    1da8:	fce45783          	lhu	a5,-50(s0)
    1dac:	0ff7f793          	andi	a5,a5,255
    1db0:	0017f793          	andi	a5,a5,1
    1db4:	0ff7f793          	andi	a5,a5,255
    1db8:	00479793          	slli	a5,a5,0x4
    1dbc:	0ff7f693          	andi	a3,a5,255
    1dc0:	fc842783          	lw	a5,-56(s0)
    1dc4:	0187d793          	srli	a5,a5,0x18
    1dc8:	0ff7f793          	andi	a5,a5,255
    1dcc:	00f7f793          	andi	a5,a5,15
    1dd0:	0ff7f793          	andi	a5,a5,255
    1dd4:	00f6e7b3          	or	a5,a3,a5
    1dd8:	0ff7f793          	andi	a5,a5,255
    1ddc:	fe07e793          	ori	a5,a5,-32
    1de0:	0ff7f793          	andi	a5,a5,255
    1de4:	fce41e23          	sh	a4,-36(s0)
    1de8:	fcf40c23          	sb	a5,-40(s0)
    1dec:	fea45783          	lhu	a5,-22(s0)
    1df0:	00778793          	addi	a5,a5,7
    1df4:	01079793          	slli	a5,a5,0x10
    1df8:	0107d793          	srli	a5,a5,0x10
    1dfc:	fcf41d23          	sh	a5,-38(s0)
    1e00:	02000793          	li	a5,32
    1e04:	fcf40ca3          	sb	a5,-39(s0)
    1e08:	fe042623          	sw	zero,-20(s0)
    1e0c:	0380006f          	j	1e44 <ide_read_secs+0x270>
    1e10:	fea45783          	lhu	a5,-22(s0)
    1e14:	00100593          	li	a1,1
    1e18:	00078513          	mv	a0,a5
    1e1c:	8fdff0ef          	jal	1718 <ide_wait_ready>
    1e20:	fea42623          	sw	a0,-20(s0)
    1e24:	fec42783          	lw	a5,-20(s0)
    1e28:	02079463          	bnez	a5,1e50 <ide_read_secs+0x27c>
    1e2c:	fc042783          	lw	a5,-64(s0)
    1e30:	fff78793          	addi	a5,a5,-1
    1e34:	fcf42023          	sw	a5,-64(s0)
    1e38:	fc442783          	lw	a5,-60(s0)
    1e3c:	20078793          	addi	a5,a5,512
    1e40:	fcf42223          	sw	a5,-60(s0)
    1e44:	fc042783          	lw	a5,-64(s0)
    1e48:	fc0794e3          	bnez	a5,1e10 <ide_read_secs+0x23c>
    1e4c:	0080006f          	j	1e54 <ide_read_secs+0x280>
    1e50:	00000013          	nop
    1e54:	fec42783          	lw	a5,-20(s0)
    1e58:	00078513          	mv	a0,a5
    1e5c:	03c12083          	lw	ra,60(sp)
    1e60:	03812403          	lw	s0,56(sp)
    1e64:	04010113          	addi	sp,sp,64
    1e68:	00008067          	ret

00001e6c <ide_write_secs>:
    1e6c:	fc010113          	addi	sp,sp,-64
    1e70:	02112e23          	sw	ra,60(sp)
    1e74:	02812c23          	sw	s0,56(sp)
    1e78:	04010413          	addi	s0,sp,64
    1e7c:	00050793          	mv	a5,a0
    1e80:	fcb42423          	sw	a1,-56(s0)
    1e84:	fcc42223          	sw	a2,-60(s0)
    1e88:	fcd42023          	sw	a3,-64(s0)
    1e8c:	fcf41723          	sh	a5,-50(s0)
    1e90:	fc042703          	lw	a4,-64(s0)
    1e94:	08000793          	li	a5,128
    1e98:	02e7ec63          	bltu	a5,a4,1ed0 <ide_write_secs+0x64>
    1e9c:	fce45703          	lhu	a4,-50(s0)
    1ea0:	00300793          	li	a5,3
    1ea4:	02e7e663          	bltu	a5,a4,1ed0 <ide_write_secs+0x64>
    1ea8:	fce45783          	lhu	a5,-50(s0)
    1eac:	00078713          	mv	a4,a5
    1eb0:	00371793          	slli	a5,a4,0x3
    1eb4:	00078713          	mv	a4,a5
    1eb8:	00371793          	slli	a5,a4,0x3
    1ebc:	40e787b3          	sub	a5,a5,a4
    1ec0:	c2818713          	addi	a4,gp,-984 # ea20 <ide_devices>
    1ec4:	00e787b3          	add	a5,a5,a4
    1ec8:	0007c783          	lbu	a5,0(a5)
    1ecc:	02079263          	bnez	a5,1ef0 <ide_write_secs+0x84>
    1ed0:	0000c7b7          	lui	a5,0xc
    1ed4:	ce078693          	addi	a3,a5,-800 # bce0 <etext+0x3ac>
    1ed8:	0000c7b7          	lui	a5,0xc
    1edc:	c9478613          	addi	a2,a5,-876 # bc94 <etext+0x360>
    1ee0:	0bc00593          	li	a1,188
    1ee4:	0000c7b7          	lui	a5,0xc
    1ee8:	cac78513          	addi	a0,a5,-852 # bcac <etext+0x378>
    1eec:	b3dfe0ef          	jal	a28 <__panic>
    1ef0:	fc842703          	lw	a4,-56(s0)
    1ef4:	100007b7          	lui	a5,0x10000
    1ef8:	00f77c63          	bleu	a5,a4,1f10 <ide_write_secs+0xa4>
    1efc:	fc842703          	lw	a4,-56(s0)
    1f00:	fc042783          	lw	a5,-64(s0)
    1f04:	00f70733          	add	a4,a4,a5
    1f08:	100007b7          	lui	a5,0x10000
    1f0c:	02e7f263          	bleu	a4,a5,1f30 <ide_write_secs+0xc4>
    1f10:	0000c7b7          	lui	a5,0xc
    1f14:	d0878693          	addi	a3,a5,-760 # bd08 <etext+0x3d4>
    1f18:	0000c7b7          	lui	a5,0xc
    1f1c:	c9478613          	addi	a2,a5,-876 # bc94 <etext+0x360>
    1f20:	0bd00593          	li	a1,189
    1f24:	0000c7b7          	lui	a5,0xc
    1f28:	cac78513          	addi	a0,a5,-852 # bcac <etext+0x378>
    1f2c:	afdfe0ef          	jal	a28 <__panic>
    1f30:	fce45783          	lhu	a5,-50(s0)
    1f34:	0017d793          	srli	a5,a5,0x1
    1f38:	01079793          	slli	a5,a5,0x10
    1f3c:	0107d793          	srli	a5,a5,0x10
    1f40:	00078713          	mv	a4,a5
    1f44:	00271713          	slli	a4,a4,0x2
    1f48:	80018793          	addi	a5,gp,-2048 # e5f8 <__sbss_end>
    1f4c:	00f707b3          	add	a5,a4,a5
    1f50:	0007d783          	lhu	a5,0(a5)
    1f54:	fef41523          	sh	a5,-22(s0)
    1f58:	fce45783          	lhu	a5,-50(s0)
    1f5c:	0017d793          	srli	a5,a5,0x1
    1f60:	01079793          	slli	a5,a5,0x10
    1f64:	0107d793          	srli	a5,a5,0x10
    1f68:	00078693          	mv	a3,a5
    1f6c:	80018713          	addi	a4,gp,-2048 # e5f8 <__sbss_end>
    1f70:	00269793          	slli	a5,a3,0x2
    1f74:	00f707b3          	add	a5,a4,a5
    1f78:	0027d783          	lhu	a5,2(a5)
    1f7c:	fef41423          	sh	a5,-24(s0)
    1f80:	fea45783          	lhu	a5,-22(s0)
    1f84:	00000593          	li	a1,0
    1f88:	00078513          	mv	a0,a5
    1f8c:	f8cff0ef          	jal	1718 <ide_wait_ready>
    1f90:	fe845783          	lhu	a5,-24(s0)
    1f94:	00278793          	addi	a5,a5,2
    1f98:	01079793          	slli	a5,a5,0x10
    1f9c:	0107d793          	srli	a5,a5,0x10
    1fa0:	fef41323          	sh	a5,-26(s0)
    1fa4:	fc0409a3          	sb	zero,-45(s0)
    1fa8:	fea45783          	lhu	a5,-22(s0)
    1fac:	00278793          	addi	a5,a5,2
    1fb0:	01079713          	slli	a4,a5,0x10
    1fb4:	01075713          	srli	a4,a4,0x10
    1fb8:	fc042783          	lw	a5,-64(s0)
    1fbc:	0ff7f793          	andi	a5,a5,255
    1fc0:	fee41223          	sh	a4,-28(s0)
    1fc4:	fcf40a23          	sb	a5,-44(s0)
    1fc8:	fea45783          	lhu	a5,-22(s0)
    1fcc:	00378793          	addi	a5,a5,3
    1fd0:	01079713          	slli	a4,a5,0x10
    1fd4:	01075713          	srli	a4,a4,0x10
    1fd8:	fc842783          	lw	a5,-56(s0)
    1fdc:	0ff7f793          	andi	a5,a5,255
    1fe0:	fee41123          	sh	a4,-30(s0)
    1fe4:	fcf40aa3          	sb	a5,-43(s0)
    1fe8:	fea45783          	lhu	a5,-22(s0)
    1fec:	00478793          	addi	a5,a5,4
    1ff0:	01079713          	slli	a4,a5,0x10
    1ff4:	01075713          	srli	a4,a4,0x10
    1ff8:	fc842783          	lw	a5,-56(s0)
    1ffc:	0087d793          	srli	a5,a5,0x8
    2000:	0ff7f793          	andi	a5,a5,255
    2004:	fee41023          	sh	a4,-32(s0)
    2008:	fcf40b23          	sb	a5,-42(s0)
    200c:	fea45783          	lhu	a5,-22(s0)
    2010:	00578793          	addi	a5,a5,5
    2014:	01079713          	slli	a4,a5,0x10
    2018:	01075713          	srli	a4,a4,0x10
    201c:	fc842783          	lw	a5,-56(s0)
    2020:	0107d793          	srli	a5,a5,0x10
    2024:	0ff7f793          	andi	a5,a5,255
    2028:	fce41f23          	sh	a4,-34(s0)
    202c:	fcf40ba3          	sb	a5,-41(s0)
    2030:	fea45783          	lhu	a5,-22(s0)
    2034:	00678793          	addi	a5,a5,6
    2038:	01079713          	slli	a4,a5,0x10
    203c:	01075713          	srli	a4,a4,0x10
    2040:	fce45783          	lhu	a5,-50(s0)
    2044:	0ff7f793          	andi	a5,a5,255
    2048:	0017f793          	andi	a5,a5,1
    204c:	0ff7f793          	andi	a5,a5,255
    2050:	00479793          	slli	a5,a5,0x4
    2054:	0ff7f693          	andi	a3,a5,255
    2058:	fc842783          	lw	a5,-56(s0)
    205c:	0187d793          	srli	a5,a5,0x18
    2060:	0ff7f793          	andi	a5,a5,255
    2064:	00f7f793          	andi	a5,a5,15
    2068:	0ff7f793          	andi	a5,a5,255
    206c:	00f6e7b3          	or	a5,a3,a5
    2070:	0ff7f793          	andi	a5,a5,255
    2074:	fe07e793          	ori	a5,a5,-32
    2078:	0ff7f793          	andi	a5,a5,255
    207c:	fce41e23          	sh	a4,-36(s0)
    2080:	fcf40c23          	sb	a5,-40(s0)
    2084:	fea45783          	lhu	a5,-22(s0)
    2088:	00778793          	addi	a5,a5,7
    208c:	01079793          	slli	a5,a5,0x10
    2090:	0107d793          	srli	a5,a5,0x10
    2094:	fcf41d23          	sh	a5,-38(s0)
    2098:	03000793          	li	a5,48
    209c:	fcf40ca3          	sb	a5,-39(s0)
    20a0:	fe042623          	sw	zero,-20(s0)
    20a4:	0380006f          	j	20dc <ide_write_secs+0x270>
    20a8:	fea45783          	lhu	a5,-22(s0)
    20ac:	00100593          	li	a1,1
    20b0:	00078513          	mv	a0,a5
    20b4:	e64ff0ef          	jal	1718 <ide_wait_ready>
    20b8:	fea42623          	sw	a0,-20(s0)
    20bc:	fec42783          	lw	a5,-20(s0)
    20c0:	02079463          	bnez	a5,20e8 <ide_write_secs+0x27c>
    20c4:	fc042783          	lw	a5,-64(s0)
    20c8:	fff78793          	addi	a5,a5,-1
    20cc:	fcf42023          	sw	a5,-64(s0)
    20d0:	fc442783          	lw	a5,-60(s0)
    20d4:	20078793          	addi	a5,a5,512
    20d8:	fcf42223          	sw	a5,-60(s0)
    20dc:	fc042783          	lw	a5,-64(s0)
    20e0:	fc0794e3          	bnez	a5,20a8 <ide_write_secs+0x23c>
    20e4:	0080006f          	j	20ec <ide_write_secs+0x280>
    20e8:	00000013          	nop
    20ec:	fec42783          	lw	a5,-20(s0)
    20f0:	00078513          	mv	a0,a5
    20f4:	03c12083          	lw	ra,60(sp)
    20f8:	03812403          	lw	s0,56(sp)
    20fc:	04010113          	addi	sp,sp,64
    2100:	00008067          	ret

00002104 <clock_init>:
    2104:	ff010113          	addi	sp,sp,-16
    2108:	00112623          	sw	ra,12(sp)
    210c:	00812423          	sw	s0,8(sp)
    2110:	01010413          	addi	s0,sp,16
    2114:	701022f3          	csrr	t0,mtime
    2118:	0007a7b7          	lui	a5,0x7a
    211c:	12078793          	addi	a5,a5,288 # 7a120 <realend+0xa120>
    2120:	00f282b3          	add	t0,t0,a5
    2124:	32129073          	csrw	mtimecmp,t0
    2128:	7a01a423          	sw	zero,1960(gp) # f5a0 <ticks>
    212c:	08000793          	li	a5,128
    2130:	3047a073          	csrs	mie,a5
    2134:	0000c7b7          	lui	a5,0xc
    2138:	d4478513          	addi	a0,a5,-700 # bd44 <etext+0x410>
    213c:	ea0fe0ef          	jal	7dc <cprintf>
    2140:	00000013          	nop
    2144:	00c12083          	lw	ra,12(sp)
    2148:	00812403          	lw	s0,8(sp)
    214c:	01010113          	addi	sp,sp,16
    2150:	00008067          	ret

00002154 <__intr_save>:
    2154:	fd010113          	addi	sp,sp,-48
    2158:	02812623          	sw	s0,44(sp)
    215c:	03010413          	addi	s0,sp,48
    2160:	00100793          	li	a5,1
    2164:	fef42623          	sw	a5,-20(s0)
    2168:	100027f3          	csrr	a5,sstatus
    216c:	fef42423          	sw	a5,-24(s0)
    2170:	fe842783          	lw	a5,-24(s0)
    2174:	fcf42823          	sw	a5,-48(s0)
    2178:	fd040793          	addi	a5,s0,-48
    217c:	fef42223          	sw	a5,-28(s0)
    2180:	00600793          	li	a5,6
    2184:	fef42023          	sw	a5,-32(s0)
    2188:	fe042783          	lw	a5,-32(s0)
    218c:	fcf42e23          	sw	a5,-36(s0)
    2190:	fc042c23          	sw	zero,-40(s0)
    2194:	01c0006f          	j	21b0 <__intr_save+0x5c>
    2198:	fdc42783          	lw	a5,-36(s0)
    219c:	0017d793          	srli	a5,a5,0x1
    21a0:	fcf42e23          	sw	a5,-36(s0)
    21a4:	fd842783          	lw	a5,-40(s0)
    21a8:	00178793          	addi	a5,a5,1
    21ac:	fcf42c23          	sw	a5,-40(s0)
    21b0:	fdc42783          	lw	a5,-36(s0)
    21b4:	0017f793          	andi	a5,a5,1
    21b8:	fe0780e3          	beqz	a5,2198 <__intr_save+0x44>
    21bc:	fe442783          	lw	a5,-28(s0)
    21c0:	0007a703          	lw	a4,0(a5)
    21c4:	fe042783          	lw	a5,-32(s0)
    21c8:	00f77733          	and	a4,a4,a5
    21cc:	fd842783          	lw	a5,-40(s0)
    21d0:	00f757b3          	srl	a5,a4,a5
    21d4:	fcf42a23          	sw	a5,-44(s0)
    21d8:	fd442783          	lw	a5,-44(s0)
    21dc:	00078863          	beqz	a5,21ec <__intr_save+0x98>
    21e0:	1000f073          	csrci	sstatus,1
    21e4:	00100793          	li	a5,1
    21e8:	0080006f          	j	21f0 <__intr_save+0x9c>
    21ec:	00000793          	li	a5,0
    21f0:	00078513          	mv	a0,a5
    21f4:	02c12403          	lw	s0,44(sp)
    21f8:	03010113          	addi	sp,sp,48
    21fc:	00008067          	ret

00002200 <__intr_restore>:
    2200:	fe010113          	addi	sp,sp,-32
    2204:	00812e23          	sw	s0,28(sp)
    2208:	02010413          	addi	s0,sp,32
    220c:	fea42623          	sw	a0,-20(s0)
    2210:	fec42783          	lw	a5,-20(s0)
    2214:	00078463          	beqz	a5,221c <__intr_restore+0x1c>
    2218:	1000e073          	csrsi	sstatus,1
    221c:	00000013          	nop
    2220:	01c12403          	lw	s0,28(sp)
    2224:	02010113          	addi	sp,sp,32
    2228:	00008067          	ret

0000222c <delay>:
    222c:	fe010113          	addi	sp,sp,-32
    2230:	00812e23          	sw	s0,28(sp)
    2234:	02010413          	addi	s0,sp,32
    2238:	08400793          	li	a5,132
    223c:	fef41723          	sh	a5,-18(s0)
    2240:	08400793          	li	a5,132
    2244:	fef41623          	sh	a5,-20(s0)
    2248:	08400793          	li	a5,132
    224c:	fef41523          	sh	a5,-22(s0)
    2250:	08400793          	li	a5,132
    2254:	fef41423          	sh	a5,-24(s0)
    2258:	00000013          	nop
    225c:	01c12403          	lw	s0,28(sp)
    2260:	02010113          	addi	sp,sp,32
    2264:	00008067          	ret

00002268 <cga_init>:
    2268:	fd010113          	addi	sp,sp,-48
    226c:	02812623          	sw	s0,44(sp)
    2270:	03010413          	addi	s0,sp,48
    2274:	c00b87b7          	lui	a5,0xc00b8
    2278:	fef42623          	sw	a5,-20(s0)
    227c:	fec42783          	lw	a5,-20(s0)
    2280:	0007d783          	lhu	a5,0(a5) # c00b8000 <realend+0xc0048000>
    2284:	fef41523          	sh	a5,-22(s0)
    2288:	fec42783          	lw	a5,-20(s0)
    228c:	ffffa737          	lui	a4,0xffffa
    2290:	55a70713          	addi	a4,a4,1370 # ffffa55a <realend+0xfff8a55a>
    2294:	00e79023          	sh	a4,0(a5)
    2298:	fec42783          	lw	a5,-20(s0)
    229c:	0007d783          	lhu	a5,0(a5)
    22a0:	01079713          	slli	a4,a5,0x10
    22a4:	01075713          	srli	a4,a4,0x10
    22a8:	0000a7b7          	lui	a5,0xa
    22ac:	55a78793          	addi	a5,a5,1370 # a55a <printnum+0x11a>
    22b0:	00f70c63          	beq	a4,a5,22c8 <cga_init+0x60>
    22b4:	c00b07b7          	lui	a5,0xc00b0
    22b8:	fef42623          	sw	a5,-20(s0)
    22bc:	3b400713          	li	a4,948
    22c0:	d0e19723          	sh	a4,-754(gp) # eb06 <addr_6845>
    22c4:	0180006f          	j	22dc <cga_init+0x74>
    22c8:	fec42783          	lw	a5,-20(s0)
    22cc:	fea45703          	lhu	a4,-22(s0)
    22d0:	00e79023          	sh	a4,0(a5) # c00b0000 <realend+0xc0040000>
    22d4:	3d400713          	li	a4,980
    22d8:	d0e19723          	sh	a4,-754(gp) # eb06 <addr_6845>
    22dc:	d0e1d783          	lhu	a5,-754(gp) # eb06 <addr_6845>
    22e0:	fef41423          	sh	a5,-24(s0)
    22e4:	00e00793          	li	a5,14
    22e8:	fcf40d23          	sb	a5,-38(s0)
    22ec:	d0e1d783          	lhu	a5,-754(gp) # eb06 <addr_6845>
    22f0:	00178793          	addi	a5,a5,1
    22f4:	01079793          	slli	a5,a5,0x10
    22f8:	0107d793          	srli	a5,a5,0x10
    22fc:	fef41123          	sh	a5,-30(s0)
    2300:	fdb44783          	lbu	a5,-37(s0)
    2304:	00879793          	slli	a5,a5,0x8
    2308:	fef42223          	sw	a5,-28(s0)
    230c:	d0e1d783          	lhu	a5,-754(gp) # eb06 <addr_6845>
    2310:	fef41023          	sh	a5,-32(s0)
    2314:	00f00793          	li	a5,15
    2318:	fcf40e23          	sb	a5,-36(s0)
    231c:	d0e1d783          	lhu	a5,-754(gp) # eb06 <addr_6845>
    2320:	00178793          	addi	a5,a5,1
    2324:	01079793          	slli	a5,a5,0x10
    2328:	0107d793          	srli	a5,a5,0x10
    232c:	fcf41f23          	sh	a5,-34(s0)
    2330:	fdd44783          	lbu	a5,-35(s0)
    2334:	00078713          	mv	a4,a5
    2338:	fe442783          	lw	a5,-28(s0)
    233c:	00e7e7b3          	or	a5,a5,a4
    2340:	fef42223          	sw	a5,-28(s0)
    2344:	fec42703          	lw	a4,-20(s0)
    2348:	d0e1a423          	sw	a4,-760(gp) # eb00 <crt_buf>
    234c:	fe442783          	lw	a5,-28(s0)
    2350:	01079713          	slli	a4,a5,0x10
    2354:	01075713          	srli	a4,a4,0x10
    2358:	d0e19623          	sh	a4,-756(gp) # eb04 <crt_pos>
    235c:	00000013          	nop
    2360:	02c12403          	lw	s0,44(sp)
    2364:	03010113          	addi	sp,sp,48
    2368:	00008067          	ret

0000236c <serial_init>:
    236c:	fd010113          	addi	sp,sp,-48
    2370:	02112623          	sw	ra,44(sp)
    2374:	02812423          	sw	s0,40(sp)
    2378:	03010413          	addi	s0,sp,48
    237c:	3fa00793          	li	a5,1018
    2380:	fef41723          	sh	a5,-18(s0)
    2384:	fc040923          	sb	zero,-46(s0)
    2388:	3fb00793          	li	a5,1019
    238c:	fef41623          	sh	a5,-20(s0)
    2390:	f8000793          	li	a5,-128
    2394:	fcf409a3          	sb	a5,-45(s0)
    2398:	3f800793          	li	a5,1016
    239c:	fef41523          	sh	a5,-22(s0)
    23a0:	00c00793          	li	a5,12
    23a4:	fcf40a23          	sb	a5,-44(s0)
    23a8:	3f900793          	li	a5,1017
    23ac:	fef41423          	sh	a5,-24(s0)
    23b0:	fc040aa3          	sb	zero,-43(s0)
    23b4:	3fb00793          	li	a5,1019
    23b8:	fef41323          	sh	a5,-26(s0)
    23bc:	00300793          	li	a5,3
    23c0:	fcf40b23          	sb	a5,-42(s0)
    23c4:	3fc00793          	li	a5,1020
    23c8:	fef41223          	sh	a5,-28(s0)
    23cc:	fc040ba3          	sb	zero,-41(s0)
    23d0:	3f900793          	li	a5,1017
    23d4:	fef41123          	sh	a5,-30(s0)
    23d8:	00100793          	li	a5,1
    23dc:	fcf40c23          	sb	a5,-40(s0)
    23e0:	3fd00793          	li	a5,1021
    23e4:	fef41023          	sh	a5,-32(s0)
    23e8:	fd944783          	lbu	a5,-39(s0)
    23ec:	f0178793          	addi	a5,a5,-255
    23f0:	00f037b3          	snez	a5,a5
    23f4:	0ff7f793          	andi	a5,a5,255
    23f8:	00078713          	mv	a4,a5
    23fc:	d0e1a823          	sw	a4,-752(gp) # eb08 <serial_exists>
    2400:	3fa00793          	li	a5,1018
    2404:	fcf41f23          	sh	a5,-34(s0)
    2408:	3f800793          	li	a5,1016
    240c:	fcf41e23          	sh	a5,-36(s0)
    2410:	d101a783          	lw	a5,-752(gp) # eb08 <serial_exists>
    2414:	00078663          	beqz	a5,2420 <serial_init+0xb4>
    2418:	00400513          	li	a0,4
    241c:	111000ef          	jal	2d2c <pic_enable>
    2420:	00000013          	nop
    2424:	02c12083          	lw	ra,44(sp)
    2428:	02812403          	lw	s0,40(sp)
    242c:	03010113          	addi	sp,sp,48
    2430:	00008067          	ret

00002434 <lpt_putc_sub>:
    2434:	fd010113          	addi	sp,sp,-48
    2438:	02112623          	sw	ra,44(sp)
    243c:	02812423          	sw	s0,40(sp)
    2440:	03010413          	addi	s0,sp,48
    2444:	fca42e23          	sw	a0,-36(s0)
    2448:	fe042623          	sw	zero,-20(s0)
    244c:	0140006f          	j	2460 <lpt_putc_sub+0x2c>
    2450:	dddff0ef          	jal	222c <delay>
    2454:	fec42783          	lw	a5,-20(s0)
    2458:	00178793          	addi	a5,a5,1
    245c:	fef42623          	sw	a5,-20(s0)
    2460:	37900793          	li	a5,889
    2464:	fef41223          	sh	a5,-28(s0)
    2468:	fe344783          	lbu	a5,-29(s0)
    246c:	01879793          	slli	a5,a5,0x18
    2470:	4187d793          	srai	a5,a5,0x18
    2474:	0007ca63          	bltz	a5,2488 <lpt_putc_sub+0x54>
    2478:	fec42703          	lw	a4,-20(s0)
    247c:	000037b7          	lui	a5,0x3
    2480:	1ff78793          	addi	a5,a5,511 # 31ff <print_trapframe+0x1eb>
    2484:	fce7d6e3          	ble	a4,a5,2450 <lpt_putc_sub+0x1c>
    2488:	fdc42783          	lw	a5,-36(s0)
    248c:	0ff7f793          	andi	a5,a5,255
    2490:	37800713          	li	a4,888
    2494:	fee41423          	sh	a4,-24(s0)
    2498:	fef40023          	sb	a5,-32(s0)
    249c:	37a00793          	li	a5,890
    24a0:	fef41323          	sh	a5,-26(s0)
    24a4:	00d00793          	li	a5,13
    24a8:	fef400a3          	sb	a5,-31(s0)
    24ac:	37a00793          	li	a5,890
    24b0:	fef41523          	sh	a5,-22(s0)
    24b4:	00800793          	li	a5,8
    24b8:	fef40123          	sb	a5,-30(s0)
    24bc:	00000013          	nop
    24c0:	02c12083          	lw	ra,44(sp)
    24c4:	02812403          	lw	s0,40(sp)
    24c8:	03010113          	addi	sp,sp,48
    24cc:	00008067          	ret

000024d0 <lpt_putc>:
    24d0:	fe010113          	addi	sp,sp,-32
    24d4:	00112e23          	sw	ra,28(sp)
    24d8:	00812c23          	sw	s0,24(sp)
    24dc:	02010413          	addi	s0,sp,32
    24e0:	fea42623          	sw	a0,-20(s0)
    24e4:	fec42703          	lw	a4,-20(s0)
    24e8:	00800793          	li	a5,8
    24ec:	00f70863          	beq	a4,a5,24fc <lpt_putc+0x2c>
    24f0:	fec42503          	lw	a0,-20(s0)
    24f4:	f41ff0ef          	jal	2434 <lpt_putc_sub>
    24f8:	01c0006f          	j	2514 <lpt_putc+0x44>
    24fc:	00800513          	li	a0,8
    2500:	f35ff0ef          	jal	2434 <lpt_putc_sub>
    2504:	02000513          	li	a0,32
    2508:	f2dff0ef          	jal	2434 <lpt_putc_sub>
    250c:	00800513          	li	a0,8
    2510:	f25ff0ef          	jal	2434 <lpt_putc_sub>
    2514:	00000013          	nop
    2518:	01c12083          	lw	ra,28(sp)
    251c:	01812403          	lw	s0,24(sp)
    2520:	02010113          	addi	sp,sp,32
    2524:	00008067          	ret

00002528 <cga_putc>:
    2528:	fd010113          	addi	sp,sp,-48
    252c:	02112623          	sw	ra,44(sp)
    2530:	02812423          	sw	s0,40(sp)
    2534:	03010413          	addi	s0,sp,48
    2538:	fca42e23          	sw	a0,-36(s0)
    253c:	fdc42783          	lw	a5,-36(s0)
    2540:	f007f793          	andi	a5,a5,-256
    2544:	00079863          	bnez	a5,2554 <cga_putc+0x2c>
    2548:	fdc42783          	lw	a5,-36(s0)
    254c:	7007e793          	ori	a5,a5,1792
    2550:	fcf42e23          	sw	a5,-36(s0)
    2554:	fdc42783          	lw	a5,-36(s0)
    2558:	0ff7f793          	andi	a5,a5,255
    255c:	00a00713          	li	a4,10
    2560:	06e78a63          	beq	a5,a4,25d4 <cga_putc+0xac>
    2564:	00d00713          	li	a4,13
    2568:	08e78063          	beq	a5,a4,25e8 <cga_putc+0xc0>
    256c:	00800713          	li	a4,8
    2570:	0ae79263          	bne	a5,a4,2614 <cga_putc+0xec>
    2574:	d0c1d783          	lhu	a5,-756(gp) # eb04 <crt_pos>
    2578:	0c078863          	beqz	a5,2648 <cga_putc+0x120>
    257c:	d0c1d783          	lhu	a5,-756(gp) # eb04 <crt_pos>
    2580:	fff78793          	addi	a5,a5,-1
    2584:	01079713          	slli	a4,a5,0x10
    2588:	01075713          	srli	a4,a4,0x10
    258c:	d0e19623          	sh	a4,-756(gp) # eb04 <crt_pos>
    2590:	d081a703          	lw	a4,-760(gp) # eb00 <crt_buf>
    2594:	d0c1d783          	lhu	a5,-756(gp) # eb04 <crt_pos>
    2598:	00179793          	slli	a5,a5,0x1
    259c:	00f707b3          	add	a5,a4,a5
    25a0:	fdc42703          	lw	a4,-36(s0)
    25a4:	01071713          	slli	a4,a4,0x10
    25a8:	41075713          	srai	a4,a4,0x10
    25ac:	f0077713          	andi	a4,a4,-256
    25b0:	01071713          	slli	a4,a4,0x10
    25b4:	41075713          	srai	a4,a4,0x10
    25b8:	02076713          	ori	a4,a4,32
    25bc:	01071713          	slli	a4,a4,0x10
    25c0:	41075713          	srai	a4,a4,0x10
    25c4:	01071713          	slli	a4,a4,0x10
    25c8:	01075713          	srli	a4,a4,0x10
    25cc:	00e79023          	sh	a4,0(a5)
    25d0:	0780006f          	j	2648 <cga_putc+0x120>
    25d4:	d0c1d783          	lhu	a5,-756(gp) # eb04 <crt_pos>
    25d8:	05078793          	addi	a5,a5,80
    25dc:	01079713          	slli	a4,a5,0x10
    25e0:	01075713          	srli	a4,a4,0x10
    25e4:	d0e19623          	sh	a4,-756(gp) # eb04 <crt_pos>
    25e8:	d0c1d703          	lhu	a4,-756(gp) # eb04 <crt_pos>
    25ec:	d0c1d683          	lhu	a3,-756(gp) # eb04 <crt_pos>
    25f0:	05000793          	li	a5,80
    25f4:	02f6f7b3          	remu	a5,a3,a5
    25f8:	01079793          	slli	a5,a5,0x10
    25fc:	0107d793          	srli	a5,a5,0x10
    2600:	40f707b3          	sub	a5,a4,a5
    2604:	01079713          	slli	a4,a5,0x10
    2608:	01075713          	srli	a4,a4,0x10
    260c:	d0e19623          	sh	a4,-756(gp) # eb04 <crt_pos>
    2610:	03c0006f          	j	264c <cga_putc+0x124>
    2614:	d081a703          	lw	a4,-760(gp) # eb00 <crt_buf>
    2618:	d0c1d783          	lhu	a5,-756(gp) # eb04 <crt_pos>
    261c:	00178693          	addi	a3,a5,1
    2620:	01069613          	slli	a2,a3,0x10
    2624:	01065613          	srli	a2,a2,0x10
    2628:	d0c19623          	sh	a2,-756(gp) # eb04 <crt_pos>
    262c:	00179793          	slli	a5,a5,0x1
    2630:	00f707b3          	add	a5,a4,a5
    2634:	fdc42703          	lw	a4,-36(s0)
    2638:	01071713          	slli	a4,a4,0x10
    263c:	01075713          	srli	a4,a4,0x10
    2640:	00e79023          	sh	a4,0(a5)
    2644:	0080006f          	j	264c <cga_putc+0x124>
    2648:	00000013          	nop
    264c:	d0c1d703          	lhu	a4,-756(gp) # eb04 <crt_pos>
    2650:	7cf00793          	li	a5,1999
    2654:	06e7fa63          	bleu	a4,a5,26c8 <cga_putc+0x1a0>
    2658:	d081a703          	lw	a4,-760(gp) # eb00 <crt_buf>
    265c:	d081a783          	lw	a5,-760(gp) # eb00 <crt_buf>
    2660:	0a078693          	addi	a3,a5,160
    2664:	000017b7          	lui	a5,0x1
    2668:	f0078613          	addi	a2,a5,-256 # f00 <debuginfo_eip+0x198>
    266c:	00068593          	mv	a1,a3
    2670:	00070513          	mv	a0,a4
    2674:	3d9070ef          	jal	a24c <memmove>
    2678:	78000793          	li	a5,1920
    267c:	fef42623          	sw	a5,-20(s0)
    2680:	0280006f          	j	26a8 <cga_putc+0x180>
    2684:	d081a703          	lw	a4,-760(gp) # eb00 <crt_buf>
    2688:	fec42783          	lw	a5,-20(s0)
    268c:	00179793          	slli	a5,a5,0x1
    2690:	00f707b3          	add	a5,a4,a5
    2694:	72000713          	li	a4,1824
    2698:	00e79023          	sh	a4,0(a5)
    269c:	fec42783          	lw	a5,-20(s0)
    26a0:	00178793          	addi	a5,a5,1
    26a4:	fef42623          	sw	a5,-20(s0)
    26a8:	fec42703          	lw	a4,-20(s0)
    26ac:	7cf00793          	li	a5,1999
    26b0:	fce7dae3          	ble	a4,a5,2684 <cga_putc+0x15c>
    26b4:	d0c1d783          	lhu	a5,-756(gp) # eb04 <crt_pos>
    26b8:	fb078793          	addi	a5,a5,-80
    26bc:	01079713          	slli	a4,a5,0x10
    26c0:	01075713          	srli	a4,a4,0x10
    26c4:	d0e19623          	sh	a4,-756(gp) # eb04 <crt_pos>
    26c8:	d0e1d783          	lhu	a5,-754(gp) # eb06 <addr_6845>
    26cc:	fef41523          	sh	a5,-22(s0)
    26d0:	00e00793          	li	a5,14
    26d4:	fef40023          	sb	a5,-32(s0)
    26d8:	d0e1d783          	lhu	a5,-754(gp) # eb06 <addr_6845>
    26dc:	00178793          	addi	a5,a5,1
    26e0:	01079713          	slli	a4,a5,0x10
    26e4:	01075713          	srli	a4,a4,0x10
    26e8:	d0c1d783          	lhu	a5,-756(gp) # eb04 <crt_pos>
    26ec:	0087d793          	srli	a5,a5,0x8
    26f0:	01079793          	slli	a5,a5,0x10
    26f4:	0107d793          	srli	a5,a5,0x10
    26f8:	0ff7f793          	andi	a5,a5,255
    26fc:	fee41423          	sh	a4,-24(s0)
    2700:	fef400a3          	sb	a5,-31(s0)
    2704:	d0e1d783          	lhu	a5,-754(gp) # eb06 <addr_6845>
    2708:	fef41323          	sh	a5,-26(s0)
    270c:	00f00793          	li	a5,15
    2710:	fef40123          	sb	a5,-30(s0)
    2714:	d0e1d783          	lhu	a5,-754(gp) # eb06 <addr_6845>
    2718:	00178793          	addi	a5,a5,1
    271c:	01079713          	slli	a4,a5,0x10
    2720:	01075713          	srli	a4,a4,0x10
    2724:	d0c1d783          	lhu	a5,-756(gp) # eb04 <crt_pos>
    2728:	0ff7f793          	andi	a5,a5,255
    272c:	fee41223          	sh	a4,-28(s0)
    2730:	fef401a3          	sb	a5,-29(s0)
    2734:	00000013          	nop
    2738:	02c12083          	lw	ra,44(sp)
    273c:	02812403          	lw	s0,40(sp)
    2740:	03010113          	addi	sp,sp,48
    2744:	00008067          	ret

00002748 <serial_putc_sub>:
    2748:	fd010113          	addi	sp,sp,-48
    274c:	02112623          	sw	ra,44(sp)
    2750:	02812423          	sw	s0,40(sp)
    2754:	03010413          	addi	s0,sp,48
    2758:	fca42e23          	sw	a0,-36(s0)
    275c:	fe042623          	sw	zero,-20(s0)
    2760:	0140006f          	j	2774 <serial_putc_sub+0x2c>
    2764:	ac9ff0ef          	jal	222c <delay>
    2768:	fec42783          	lw	a5,-20(s0)
    276c:	00178793          	addi	a5,a5,1
    2770:	fef42623          	sw	a5,-20(s0)
    2774:	3fd00793          	li	a5,1021
    2778:	fef41423          	sh	a5,-24(s0)
    277c:	fe744783          	lbu	a5,-25(s0)
    2780:	0207f793          	andi	a5,a5,32
    2784:	00079a63          	bnez	a5,2798 <serial_putc_sub+0x50>
    2788:	fec42703          	lw	a4,-20(s0)
    278c:	000037b7          	lui	a5,0x3
    2790:	1ff78793          	addi	a5,a5,511 # 31ff <print_trapframe+0x1eb>
    2794:	fce7d8e3          	ble	a4,a5,2764 <serial_putc_sub+0x1c>
    2798:	fdc42783          	lw	a5,-36(s0)
    279c:	0ff7f793          	andi	a5,a5,255
    27a0:	3f800713          	li	a4,1016
    27a4:	fee41523          	sh	a4,-22(s0)
    27a8:	fef40323          	sb	a5,-26(s0)
    27ac:	00000013          	nop
    27b0:	02c12083          	lw	ra,44(sp)
    27b4:	02812403          	lw	s0,40(sp)
    27b8:	03010113          	addi	sp,sp,48
    27bc:	00008067          	ret

000027c0 <serial_putc>:
    27c0:	fe010113          	addi	sp,sp,-32
    27c4:	00112e23          	sw	ra,28(sp)
    27c8:	00812c23          	sw	s0,24(sp)
    27cc:	02010413          	addi	s0,sp,32
    27d0:	fea42623          	sw	a0,-20(s0)
    27d4:	fec42703          	lw	a4,-20(s0)
    27d8:	00800793          	li	a5,8
    27dc:	00f70863          	beq	a4,a5,27ec <serial_putc+0x2c>
    27e0:	fec42503          	lw	a0,-20(s0)
    27e4:	f65ff0ef          	jal	2748 <serial_putc_sub>
    27e8:	01c0006f          	j	2804 <serial_putc+0x44>
    27ec:	00800513          	li	a0,8
    27f0:	f59ff0ef          	jal	2748 <serial_putc_sub>
    27f4:	02000513          	li	a0,32
    27f8:	f51ff0ef          	jal	2748 <serial_putc_sub>
    27fc:	00800513          	li	a0,8
    2800:	f49ff0ef          	jal	2748 <serial_putc_sub>
    2804:	00000013          	nop
    2808:	01c12083          	lw	ra,28(sp)
    280c:	01812403          	lw	s0,24(sp)
    2810:	02010113          	addi	sp,sp,32
    2814:	00008067          	ret

00002818 <cons_intr>:
    2818:	fd010113          	addi	sp,sp,-48
    281c:	02112623          	sw	ra,44(sp)
    2820:	02812423          	sw	s0,40(sp)
    2824:	03010413          	addi	s0,sp,48
    2828:	fca42e23          	sw	a0,-36(s0)
    282c:	04c0006f          	j	2878 <cons_intr+0x60>
    2830:	fec42783          	lw	a5,-20(s0)
    2834:	04078263          	beqz	a5,2878 <cons_intr+0x60>
    2838:	d1418793          	addi	a5,gp,-748 # eb0c <cons>
    283c:	2047a783          	lw	a5,516(a5)
    2840:	00178693          	addi	a3,a5,1
    2844:	d1418713          	addi	a4,gp,-748 # eb0c <cons>
    2848:	20d72223          	sw	a3,516(a4)
    284c:	fec42703          	lw	a4,-20(s0)
    2850:	0ff77713          	andi	a4,a4,255
    2854:	d1418693          	addi	a3,gp,-748 # eb0c <cons>
    2858:	00d787b3          	add	a5,a5,a3
    285c:	00e78023          	sb	a4,0(a5)
    2860:	d1418793          	addi	a5,gp,-748 # eb0c <cons>
    2864:	2047a703          	lw	a4,516(a5)
    2868:	20000793          	li	a5,512
    286c:	00f71663          	bne	a4,a5,2878 <cons_intr+0x60>
    2870:	d1418793          	addi	a5,gp,-748 # eb0c <cons>
    2874:	2007a223          	sw	zero,516(a5)
    2878:	fdc42783          	lw	a5,-36(s0)
    287c:	000780e7          	jalr	a5
    2880:	fea42623          	sw	a0,-20(s0)
    2884:	fec42703          	lw	a4,-20(s0)
    2888:	fff00793          	li	a5,-1
    288c:	faf712e3          	bne	a4,a5,2830 <cons_intr+0x18>
    2890:	00000013          	nop
    2894:	02c12083          	lw	ra,44(sp)
    2898:	02812403          	lw	s0,40(sp)
    289c:	03010113          	addi	sp,sp,48
    28a0:	00008067          	ret

000028a4 <serial_proc_data>:
    28a4:	fe010113          	addi	sp,sp,-32
    28a8:	00812e23          	sw	s0,28(sp)
    28ac:	02010413          	addi	s0,sp,32
    28b0:	3fd00793          	li	a5,1021
    28b4:	fef41423          	sh	a5,-24(s0)
    28b8:	fe744783          	lbu	a5,-25(s0)
    28bc:	0017f793          	andi	a5,a5,1
    28c0:	00079663          	bnez	a5,28cc <serial_proc_data+0x28>
    28c4:	fff00793          	li	a5,-1
    28c8:	02c0006f          	j	28f4 <serial_proc_data+0x50>
    28cc:	3f800793          	li	a5,1016
    28d0:	fef41523          	sh	a5,-22(s0)
    28d4:	fe644783          	lbu	a5,-26(s0)
    28d8:	fef42623          	sw	a5,-20(s0)
    28dc:	fec42703          	lw	a4,-20(s0)
    28e0:	07f00793          	li	a5,127
    28e4:	00f71663          	bne	a4,a5,28f0 <serial_proc_data+0x4c>
    28e8:	00800793          	li	a5,8
    28ec:	fef42623          	sw	a5,-20(s0)
    28f0:	fec42783          	lw	a5,-20(s0)
    28f4:	00078513          	mv	a0,a5
    28f8:	01c12403          	lw	s0,28(sp)
    28fc:	02010113          	addi	sp,sp,32
    2900:	00008067          	ret

00002904 <serial_intr>:
    2904:	ff010113          	addi	sp,sp,-16
    2908:	00112623          	sw	ra,12(sp)
    290c:	00812423          	sw	s0,8(sp)
    2910:	01010413          	addi	s0,sp,16
    2914:	d101a783          	lw	a5,-752(gp) # eb08 <serial_exists>
    2918:	00078863          	beqz	a5,2928 <serial_intr+0x24>
    291c:	000037b7          	lui	a5,0x3
    2920:	8a478513          	addi	a0,a5,-1884 # 28a4 <serial_proc_data>
    2924:	ef5ff0ef          	jal	2818 <cons_intr>
    2928:	00000013          	nop
    292c:	00c12083          	lw	ra,12(sp)
    2930:	00812403          	lw	s0,8(sp)
    2934:	01010113          	addi	sp,sp,16
    2938:	00008067          	ret

0000293c <kbd_proc_data>:
    293c:	fe010113          	addi	sp,sp,-32
    2940:	00112e23          	sw	ra,28(sp)
    2944:	00812c23          	sw	s0,24(sp)
    2948:	02010413          	addi	s0,sp,32
    294c:	06400793          	li	a5,100
    2950:	fef41223          	sh	a5,-28(s0)
    2954:	fe344783          	lbu	a5,-29(s0)
    2958:	0017f793          	andi	a5,a5,1
    295c:	00079663          	bnez	a5,2968 <kbd_proc_data+0x2c>
    2960:	fff00793          	li	a5,-1
    2964:	1c40006f          	j	2b28 <kbd_proc_data+0x1ec>
    2968:	06000793          	li	a5,96
    296c:	fef41423          	sh	a5,-24(s0)
    2970:	fe244783          	lbu	a5,-30(s0)
    2974:	fef405a3          	sb	a5,-21(s0)
    2978:	feb44703          	lbu	a4,-21(s0)
    297c:	0e000793          	li	a5,224
    2980:	00f71c63          	bne	a4,a5,2998 <kbd_proc_data+0x5c>
    2984:	f1c1a783          	lw	a5,-228(gp) # ed14 <shift.1607>
    2988:	0407e713          	ori	a4,a5,64
    298c:	f0e1ae23          	sw	a4,-228(gp) # ed14 <shift.1607>
    2990:	00000793          	li	a5,0
    2994:	1940006f          	j	2b28 <kbd_proc_data+0x1ec>
    2998:	feb40783          	lb	a5,-21(s0)
    299c:	0607d063          	bgez	a5,29fc <kbd_proc_data+0xc0>
    29a0:	f1c1a783          	lw	a5,-228(gp) # ed14 <shift.1607>
    29a4:	0407f793          	andi	a5,a5,64
    29a8:	00079a63          	bnez	a5,29bc <kbd_proc_data+0x80>
    29ac:	feb44783          	lbu	a5,-21(s0)
    29b0:	07f7f793          	andi	a5,a5,127
    29b4:	0ff7f793          	andi	a5,a5,255
    29b8:	0080006f          	j	29c0 <kbd_proc_data+0x84>
    29bc:	feb44783          	lbu	a5,-21(s0)
    29c0:	fef405a3          	sb	a5,-21(s0)
    29c4:	feb44703          	lbu	a4,-21(s0)
    29c8:	0000e7b7          	lui	a5,0xe
    29cc:	02478793          	addi	a5,a5,36 # e024 <shiftcode>
    29d0:	00f707b3          	add	a5,a4,a5
    29d4:	0007c783          	lbu	a5,0(a5)
    29d8:	0407e793          	ori	a5,a5,64
    29dc:	0ff7f793          	andi	a5,a5,255
    29e0:	fff7c793          	not	a5,a5
    29e4:	00078713          	mv	a4,a5
    29e8:	f1c1a783          	lw	a5,-228(gp) # ed14 <shift.1607>
    29ec:	00f77733          	and	a4,a4,a5
    29f0:	f0e1ae23          	sw	a4,-228(gp) # ed14 <shift.1607>
    29f4:	00000793          	li	a5,0
    29f8:	1300006f          	j	2b28 <kbd_proc_data+0x1ec>
    29fc:	f1c1a783          	lw	a5,-228(gp) # ed14 <shift.1607>
    2a00:	0407f793          	andi	a5,a5,64
    2a04:	00078e63          	beqz	a5,2a20 <kbd_proc_data+0xe4>
    2a08:	feb44783          	lbu	a5,-21(s0)
    2a0c:	f807e793          	ori	a5,a5,-128
    2a10:	fef405a3          	sb	a5,-21(s0)
    2a14:	f1c1a783          	lw	a5,-228(gp) # ed14 <shift.1607>
    2a18:	fbf7f713          	andi	a4,a5,-65
    2a1c:	f0e1ae23          	sw	a4,-228(gp) # ed14 <shift.1607>
    2a20:	feb44703          	lbu	a4,-21(s0)
    2a24:	0000e7b7          	lui	a5,0xe
    2a28:	02478793          	addi	a5,a5,36 # e024 <shiftcode>
    2a2c:	00f707b3          	add	a5,a4,a5
    2a30:	0007c783          	lbu	a5,0(a5)
    2a34:	00078713          	mv	a4,a5
    2a38:	f1c1a783          	lw	a5,-228(gp) # ed14 <shift.1607>
    2a3c:	00f76733          	or	a4,a4,a5
    2a40:	f0e1ae23          	sw	a4,-228(gp) # ed14 <shift.1607>
    2a44:	feb44703          	lbu	a4,-21(s0)
    2a48:	0000e7b7          	lui	a5,0xe
    2a4c:	12478793          	addi	a5,a5,292 # e124 <togglecode>
    2a50:	00f707b3          	add	a5,a4,a5
    2a54:	0007c783          	lbu	a5,0(a5)
    2a58:	00078713          	mv	a4,a5
    2a5c:	f1c1a783          	lw	a5,-228(gp) # ed14 <shift.1607>
    2a60:	00f74733          	xor	a4,a4,a5
    2a64:	f0e1ae23          	sw	a4,-228(gp) # ed14 <shift.1607>
    2a68:	f1c1a783          	lw	a5,-228(gp) # ed14 <shift.1607>
    2a6c:	0037f713          	andi	a4,a5,3
    2a70:	0000e7b7          	lui	a5,0xe
    2a74:	00271713          	slli	a4,a4,0x2
    2a78:	52478793          	addi	a5,a5,1316 # e524 <charcode>
    2a7c:	00f707b3          	add	a5,a4,a5
    2a80:	0007a703          	lw	a4,0(a5)
    2a84:	feb44783          	lbu	a5,-21(s0)
    2a88:	00f707b3          	add	a5,a4,a5
    2a8c:	0007c783          	lbu	a5,0(a5)
    2a90:	fef42623          	sw	a5,-20(s0)
    2a94:	f1c1a783          	lw	a5,-228(gp) # ed14 <shift.1607>
    2a98:	0087f793          	andi	a5,a5,8
    2a9c:	04078863          	beqz	a5,2aec <kbd_proc_data+0x1b0>
    2aa0:	fec42703          	lw	a4,-20(s0)
    2aa4:	06000793          	li	a5,96
    2aa8:	02e7d063          	ble	a4,a5,2ac8 <kbd_proc_data+0x18c>
    2aac:	fec42703          	lw	a4,-20(s0)
    2ab0:	07a00793          	li	a5,122
    2ab4:	00e7ca63          	blt	a5,a4,2ac8 <kbd_proc_data+0x18c>
    2ab8:	fec42783          	lw	a5,-20(s0)
    2abc:	fe078793          	addi	a5,a5,-32
    2ac0:	fef42623          	sw	a5,-20(s0)
    2ac4:	0280006f          	j	2aec <kbd_proc_data+0x1b0>
    2ac8:	fec42703          	lw	a4,-20(s0)
    2acc:	04000793          	li	a5,64
    2ad0:	00e7de63          	ble	a4,a5,2aec <kbd_proc_data+0x1b0>
    2ad4:	fec42703          	lw	a4,-20(s0)
    2ad8:	05a00793          	li	a5,90
    2adc:	00e7c863          	blt	a5,a4,2aec <kbd_proc_data+0x1b0>
    2ae0:	fec42783          	lw	a5,-20(s0)
    2ae4:	02078793          	addi	a5,a5,32
    2ae8:	fef42623          	sw	a5,-20(s0)
    2aec:	f1c1a783          	lw	a5,-228(gp) # ed14 <shift.1607>
    2af0:	fff7c793          	not	a5,a5
    2af4:	0067f793          	andi	a5,a5,6
    2af8:	02079663          	bnez	a5,2b24 <kbd_proc_data+0x1e8>
    2afc:	fec42703          	lw	a4,-20(s0)
    2b00:	0e900793          	li	a5,233
    2b04:	02f71063          	bne	a4,a5,2b24 <kbd_proc_data+0x1e8>
    2b08:	0000c7b7          	lui	a5,0xc
    2b0c:	d6078513          	addi	a0,a5,-672 # bd60 <etext+0x42c>
    2b10:	ccdfd0ef          	jal	7dc <cprintf>
    2b14:	09200793          	li	a5,146
    2b18:	fef41323          	sh	a5,-26(s0)
    2b1c:	00300793          	li	a5,3
    2b20:	fef400a3          	sb	a5,-31(s0)
    2b24:	fec42783          	lw	a5,-20(s0)
    2b28:	00078513          	mv	a0,a5
    2b2c:	01c12083          	lw	ra,28(sp)
    2b30:	01812403          	lw	s0,24(sp)
    2b34:	02010113          	addi	sp,sp,32
    2b38:	00008067          	ret

00002b3c <kbd_intr>:
    2b3c:	ff010113          	addi	sp,sp,-16
    2b40:	00112623          	sw	ra,12(sp)
    2b44:	00812423          	sw	s0,8(sp)
    2b48:	01010413          	addi	s0,sp,16
    2b4c:	000037b7          	lui	a5,0x3
    2b50:	93c78513          	addi	a0,a5,-1732 # 293c <kbd_proc_data>
    2b54:	cc5ff0ef          	jal	2818 <cons_intr>
    2b58:	00000013          	nop
    2b5c:	00c12083          	lw	ra,12(sp)
    2b60:	00812403          	lw	s0,8(sp)
    2b64:	01010113          	addi	sp,sp,16
    2b68:	00008067          	ret

00002b6c <kbd_init>:
    2b6c:	ff010113          	addi	sp,sp,-16
    2b70:	00112623          	sw	ra,12(sp)
    2b74:	00812423          	sw	s0,8(sp)
    2b78:	01010413          	addi	s0,sp,16
    2b7c:	fc1ff0ef          	jal	2b3c <kbd_intr>
    2b80:	00100513          	li	a0,1
    2b84:	1a8000ef          	jal	2d2c <pic_enable>
    2b88:	00000013          	nop
    2b8c:	00c12083          	lw	ra,12(sp)
    2b90:	00812403          	lw	s0,8(sp)
    2b94:	01010113          	addi	sp,sp,16
    2b98:	00008067          	ret

00002b9c <cons_init>:
    2b9c:	ff010113          	addi	sp,sp,-16
    2ba0:	00112623          	sw	ra,12(sp)
    2ba4:	00812423          	sw	s0,8(sp)
    2ba8:	01010413          	addi	s0,sp,16
    2bac:	ebcff0ef          	jal	2268 <cga_init>
    2bb0:	fbcff0ef          	jal	236c <serial_init>
    2bb4:	fb9ff0ef          	jal	2b6c <kbd_init>
    2bb8:	d101a783          	lw	a5,-752(gp) # eb08 <serial_exists>
    2bbc:	00079863          	bnez	a5,2bcc <cons_init+0x30>
    2bc0:	0000c7b7          	lui	a5,0xc
    2bc4:	d6c78513          	addi	a0,a5,-660 # bd6c <etext+0x438>
    2bc8:	c15fd0ef          	jal	7dc <cprintf>
    2bcc:	00000013          	nop
    2bd0:	00c12083          	lw	ra,12(sp)
    2bd4:	00812403          	lw	s0,8(sp)
    2bd8:	01010113          	addi	sp,sp,16
    2bdc:	00008067          	ret

00002be0 <cons_putc>:
    2be0:	fd010113          	addi	sp,sp,-48
    2be4:	02112623          	sw	ra,44(sp)
    2be8:	02812423          	sw	s0,40(sp)
    2bec:	03010413          	addi	s0,sp,48
    2bf0:	fca42e23          	sw	a0,-36(s0)
    2bf4:	d60ff0ef          	jal	2154 <__intr_save>
    2bf8:	fea42623          	sw	a0,-20(s0)
    2bfc:	fdc42503          	lw	a0,-36(s0)
    2c00:	8d1ff0ef          	jal	24d0 <lpt_putc>
    2c04:	fdc42503          	lw	a0,-36(s0)
    2c08:	921ff0ef          	jal	2528 <cga_putc>
    2c0c:	fdc42503          	lw	a0,-36(s0)
    2c10:	bb1ff0ef          	jal	27c0 <serial_putc>
    2c14:	fec42503          	lw	a0,-20(s0)
    2c18:	de8ff0ef          	jal	2200 <__intr_restore>
    2c1c:	00000013          	nop
    2c20:	02c12083          	lw	ra,44(sp)
    2c24:	02812403          	lw	s0,40(sp)
    2c28:	03010113          	addi	sp,sp,48
    2c2c:	00008067          	ret

00002c30 <cons_getc>:
    2c30:	fe010113          	addi	sp,sp,-32
    2c34:	00112e23          	sw	ra,28(sp)
    2c38:	00812c23          	sw	s0,24(sp)
    2c3c:	02010413          	addi	s0,sp,32
    2c40:	fe042623          	sw	zero,-20(s0)
    2c44:	d10ff0ef          	jal	2154 <__intr_save>
    2c48:	fea42423          	sw	a0,-24(s0)
    2c4c:	cb9ff0ef          	jal	2904 <serial_intr>
    2c50:	eedff0ef          	jal	2b3c <kbd_intr>
    2c54:	d1418793          	addi	a5,gp,-748 # eb0c <cons>
    2c58:	2007a703          	lw	a4,512(a5)
    2c5c:	d1418793          	addi	a5,gp,-748 # eb0c <cons>
    2c60:	2047a783          	lw	a5,516(a5)
    2c64:	04f70063          	beq	a4,a5,2ca4 <cons_getc+0x74>
    2c68:	d1418793          	addi	a5,gp,-748 # eb0c <cons>
    2c6c:	2007a783          	lw	a5,512(a5)
    2c70:	00178693          	addi	a3,a5,1
    2c74:	d1418713          	addi	a4,gp,-748 # eb0c <cons>
    2c78:	20d72023          	sw	a3,512(a4)
    2c7c:	d1418713          	addi	a4,gp,-748 # eb0c <cons>
    2c80:	00e787b3          	add	a5,a5,a4
    2c84:	0007c783          	lbu	a5,0(a5)
    2c88:	fef42623          	sw	a5,-20(s0)
    2c8c:	d1418793          	addi	a5,gp,-748 # eb0c <cons>
    2c90:	2007a703          	lw	a4,512(a5)
    2c94:	20000793          	li	a5,512
    2c98:	00f71663          	bne	a4,a5,2ca4 <cons_getc+0x74>
    2c9c:	d1418793          	addi	a5,gp,-748 # eb0c <cons>
    2ca0:	2007a023          	sw	zero,512(a5)
    2ca4:	fe842503          	lw	a0,-24(s0)
    2ca8:	d58ff0ef          	jal	2200 <__intr_restore>
    2cac:	fec42783          	lw	a5,-20(s0)
    2cb0:	00078513          	mv	a0,a5
    2cb4:	01c12083          	lw	ra,28(sp)
    2cb8:	01812403          	lw	s0,24(sp)
    2cbc:	02010113          	addi	sp,sp,32
    2cc0:	00008067          	ret

00002cc4 <pic_setmask>:
    2cc4:	fd010113          	addi	sp,sp,-48
    2cc8:	02812623          	sw	s0,44(sp)
    2ccc:	03010413          	addi	s0,sp,48
    2cd0:	00050793          	mv	a5,a0
    2cd4:	fcf41f23          	sh	a5,-34(s0)
    2cd8:	fde45703          	lhu	a4,-34(s0)
    2cdc:	80e19423          	sh	a4,-2040(gp) # e600 <irq_mask>
    2ce0:	f201a783          	lw	a5,-224(gp) # ed18 <did_init>
    2ce4:	02078c63          	beqz	a5,2d1c <pic_setmask+0x58>
    2ce8:	fde45783          	lhu	a5,-34(s0)
    2cec:	0ff7f793          	andi	a5,a5,255
    2cf0:	02100713          	li	a4,33
    2cf4:	fee41723          	sh	a4,-18(s0)
    2cf8:	fef40523          	sb	a5,-22(s0)
    2cfc:	fde45783          	lhu	a5,-34(s0)
    2d00:	0087d793          	srli	a5,a5,0x8
    2d04:	01079793          	slli	a5,a5,0x10
    2d08:	0107d793          	srli	a5,a5,0x10
    2d0c:	0ff7f793          	andi	a5,a5,255
    2d10:	0a100713          	li	a4,161
    2d14:	fee41623          	sh	a4,-20(s0)
    2d18:	fef405a3          	sb	a5,-21(s0)
    2d1c:	00000013          	nop
    2d20:	02c12403          	lw	s0,44(sp)
    2d24:	03010113          	addi	sp,sp,48
    2d28:	00008067          	ret

00002d2c <pic_enable>:
    2d2c:	fe010113          	addi	sp,sp,-32
    2d30:	00112e23          	sw	ra,28(sp)
    2d34:	00812c23          	sw	s0,24(sp)
    2d38:	02010413          	addi	s0,sp,32
    2d3c:	fea42623          	sw	a0,-20(s0)
    2d40:	00100713          	li	a4,1
    2d44:	fec42783          	lw	a5,-20(s0)
    2d48:	00f717b3          	sll	a5,a4,a5
    2d4c:	01079793          	slli	a5,a5,0x10
    2d50:	4107d793          	srai	a5,a5,0x10
    2d54:	fff7c793          	not	a5,a5
    2d58:	01079713          	slli	a4,a5,0x10
    2d5c:	41075713          	srai	a4,a4,0x10
    2d60:	8081d783          	lhu	a5,-2040(gp) # e600 <irq_mask>
    2d64:	01079793          	slli	a5,a5,0x10
    2d68:	4107d793          	srai	a5,a5,0x10
    2d6c:	00f777b3          	and	a5,a4,a5
    2d70:	01079793          	slli	a5,a5,0x10
    2d74:	4107d793          	srai	a5,a5,0x10
    2d78:	01079793          	slli	a5,a5,0x10
    2d7c:	0107d793          	srli	a5,a5,0x10
    2d80:	00078513          	mv	a0,a5
    2d84:	f41ff0ef          	jal	2cc4 <pic_setmask>
    2d88:	00000013          	nop
    2d8c:	01c12083          	lw	ra,28(sp)
    2d90:	01812403          	lw	s0,24(sp)
    2d94:	02010113          	addi	sp,sp,32
    2d98:	00008067          	ret

00002d9c <pic_init>:
    2d9c:	fc010113          	addi	sp,sp,-64
    2da0:	02112e23          	sw	ra,60(sp)
    2da4:	02812c23          	sw	s0,56(sp)
    2da8:	04010413          	addi	s0,sp,64
    2dac:	00100713          	li	a4,1
    2db0:	f2e1a023          	sw	a4,-224(gp) # ed18 <did_init>
    2db4:	02100793          	li	a5,33
    2db8:	fef41723          	sh	a5,-18(s0)
    2dbc:	fff00793          	li	a5,-1
    2dc0:	fcf40323          	sb	a5,-58(s0)
    2dc4:	0a100793          	li	a5,161
    2dc8:	fef41623          	sh	a5,-20(s0)
    2dcc:	fff00793          	li	a5,-1
    2dd0:	fcf403a3          	sb	a5,-57(s0)
    2dd4:	02000793          	li	a5,32
    2dd8:	fef41523          	sh	a5,-22(s0)
    2ddc:	01100793          	li	a5,17
    2de0:	fcf40423          	sb	a5,-56(s0)
    2de4:	02100793          	li	a5,33
    2de8:	fef41423          	sh	a5,-24(s0)
    2dec:	02000793          	li	a5,32
    2df0:	fcf404a3          	sb	a5,-55(s0)
    2df4:	02100793          	li	a5,33
    2df8:	fef41323          	sh	a5,-26(s0)
    2dfc:	00400793          	li	a5,4
    2e00:	fcf40523          	sb	a5,-54(s0)
    2e04:	02100793          	li	a5,33
    2e08:	fef41223          	sh	a5,-28(s0)
    2e0c:	00300793          	li	a5,3
    2e10:	fcf405a3          	sb	a5,-53(s0)
    2e14:	0a000793          	li	a5,160
    2e18:	fef41123          	sh	a5,-30(s0)
    2e1c:	01100793          	li	a5,17
    2e20:	fcf40623          	sb	a5,-52(s0)
    2e24:	0a100793          	li	a5,161
    2e28:	fef41023          	sh	a5,-32(s0)
    2e2c:	02800793          	li	a5,40
    2e30:	fcf406a3          	sb	a5,-51(s0)
    2e34:	0a100793          	li	a5,161
    2e38:	fcf41f23          	sh	a5,-34(s0)
    2e3c:	00200793          	li	a5,2
    2e40:	fcf40723          	sb	a5,-50(s0)
    2e44:	0a100793          	li	a5,161
    2e48:	fcf41e23          	sh	a5,-36(s0)
    2e4c:	00300793          	li	a5,3
    2e50:	fcf407a3          	sb	a5,-49(s0)
    2e54:	02000793          	li	a5,32
    2e58:	fcf41d23          	sh	a5,-38(s0)
    2e5c:	06800793          	li	a5,104
    2e60:	fcf40823          	sb	a5,-48(s0)
    2e64:	02000793          	li	a5,32
    2e68:	fcf41c23          	sh	a5,-40(s0)
    2e6c:	00a00793          	li	a5,10
    2e70:	fcf408a3          	sb	a5,-47(s0)
    2e74:	0a000793          	li	a5,160
    2e78:	fcf41b23          	sh	a5,-42(s0)
    2e7c:	06800793          	li	a5,104
    2e80:	fcf40923          	sb	a5,-46(s0)
    2e84:	0a000793          	li	a5,160
    2e88:	fcf41a23          	sh	a5,-44(s0)
    2e8c:	00a00793          	li	a5,10
    2e90:	fcf409a3          	sb	a5,-45(s0)
    2e94:	8081d703          	lhu	a4,-2040(gp) # e600 <irq_mask>
    2e98:	000107b7          	lui	a5,0x10
    2e9c:	fff78793          	addi	a5,a5,-1 # ffff <__bss_end+0x93f>
    2ea0:	00f70863          	beq	a4,a5,2eb0 <pic_init+0x114>
    2ea4:	8081d783          	lhu	a5,-2040(gp) # e600 <irq_mask>
    2ea8:	00078513          	mv	a0,a5
    2eac:	e19ff0ef          	jal	2cc4 <pic_setmask>
    2eb0:	00000013          	nop
    2eb4:	03c12083          	lw	ra,60(sp)
    2eb8:	03812403          	lw	s0,56(sp)
    2ebc:	04010113          	addi	sp,sp,64
    2ec0:	00008067          	ret

00002ec4 <intr_enable>:
    2ec4:	ff010113          	addi	sp,sp,-16
    2ec8:	00812623          	sw	s0,12(sp)
    2ecc:	01010413          	addi	s0,sp,16
    2ed0:	00100793          	li	a5,1
    2ed4:	3007a073          	csrs	mstatus,a5
    2ed8:	00000013          	nop
    2edc:	00c12403          	lw	s0,12(sp)
    2ee0:	01010113          	addi	sp,sp,16
    2ee4:	00008067          	ret

00002ee8 <intr_disable>:
    2ee8:	ff010113          	addi	sp,sp,-16
    2eec:	00812623          	sw	s0,12(sp)
    2ef0:	01010413          	addi	s0,sp,16
    2ef4:	3000f073          	csrci	mstatus,1
    2ef8:	00000013          	nop
    2efc:	00c12403          	lw	s0,12(sp)
    2f00:	01010113          	addi	sp,sp,16
    2f04:	00008067          	ret

00002f08 <print_ticks>:
    2f08:	ff010113          	addi	sp,sp,-16
    2f0c:	00112623          	sw	ra,12(sp)
    2f10:	00812423          	sw	s0,8(sp)
    2f14:	01010413          	addi	s0,sp,16
    2f18:	06400593          	li	a1,100
    2f1c:	0000c7b7          	lui	a5,0xc
    2f20:	d8c78513          	addi	a0,a5,-628 # bd8c <etext+0x458>
    2f24:	8b9fd0ef          	jal	7dc <cprintf>
    2f28:	00000013          	nop
    2f2c:	00c12083          	lw	ra,12(sp)
    2f30:	00812403          	lw	s0,8(sp)
    2f34:	01010113          	addi	sp,sp,16
    2f38:	00008067          	ret

00002f3c <idt_init>:
    2f3c:	ff010113          	addi	sp,sp,-16
    2f40:	00812623          	sw	s0,12(sp)
    2f44:	01010413          	addi	s0,sp,16
    2f48:	00000013          	nop
    2f4c:	00c12403          	lw	s0,12(sp)
    2f50:	01010113          	addi	sp,sp,16
    2f54:	00008067          	ret

00002f58 <trapname>:
    2f58:	fe010113          	addi	sp,sp,-32
    2f5c:	00812e23          	sw	s0,28(sp)
    2f60:	02010413          	addi	s0,sp,32
    2f64:	fea42623          	sw	a0,-20(s0)
    2f68:	fec42703          	lw	a4,-20(s0)
    2f6c:	01300793          	li	a5,19
    2f70:	02e7e063          	bltu	a5,a4,2f90 <trapname+0x38>
    2f74:	0000c7b7          	lui	a5,0xc
    2f78:	fec42703          	lw	a4,-20(s0)
    2f7c:	00271713          	slli	a4,a4,0x2
    2f80:	0d878793          	addi	a5,a5,216 # c0d8 <excnames.1746>
    2f84:	00f707b3          	add	a5,a4,a5
    2f88:	0007a783          	lw	a5,0(a5)
    2f8c:	0300006f          	j	2fbc <trapname+0x64>
    2f90:	fec42703          	lw	a4,-20(s0)
    2f94:	01f00793          	li	a5,31
    2f98:	00e7de63          	ble	a4,a5,2fb4 <trapname+0x5c>
    2f9c:	fec42703          	lw	a4,-20(s0)
    2fa0:	02f00793          	li	a5,47
    2fa4:	00e7c863          	blt	a5,a4,2fb4 <trapname+0x5c>
    2fa8:	0000c7b7          	lui	a5,0xc
    2fac:	d9878793          	addi	a5,a5,-616 # bd98 <etext+0x464>
    2fb0:	00c0006f          	j	2fbc <trapname+0x64>
    2fb4:	0000c7b7          	lui	a5,0xc
    2fb8:	dac78793          	addi	a5,a5,-596 # bdac <etext+0x478>
    2fbc:	00078513          	mv	a0,a5
    2fc0:	01c12403          	lw	s0,28(sp)
    2fc4:	02010113          	addi	sp,sp,32
    2fc8:	00008067          	ret

00002fcc <trap_in_kernel>:
    2fcc:	fe010113          	addi	sp,sp,-32
    2fd0:	00812e23          	sw	s0,28(sp)
    2fd4:	02010413          	addi	s0,sp,32
    2fd8:	fea42623          	sw	a0,-20(s0)
    2fdc:	fec42783          	lw	a5,-20(s0)
    2fe0:	03c7c703          	lbu	a4,60(a5)
    2fe4:	03d7c783          	lbu	a5,61(a5)
    2fe8:	00879793          	slli	a5,a5,0x8
    2fec:	00e7e7b3          	or	a5,a5,a4
    2ff0:	01079793          	slli	a5,a5,0x10
    2ff4:	0107d793          	srli	a5,a5,0x10
    2ff8:	ff878793          	addi	a5,a5,-8
    2ffc:	0017b793          	seqz	a5,a5
    3000:	0ff7f793          	andi	a5,a5,255
    3004:	00078513          	mv	a0,a5
    3008:	01c12403          	lw	s0,28(sp)
    300c:	02010113          	addi	sp,sp,32
    3010:	00008067          	ret

00003014 <print_trapframe>:
    3014:	fd010113          	addi	sp,sp,-48
    3018:	02112623          	sw	ra,44(sp)
    301c:	02812423          	sw	s0,40(sp)
    3020:	02912223          	sw	s1,36(sp)
    3024:	03010413          	addi	s0,sp,48
    3028:	fca42e23          	sw	a0,-36(s0)
    302c:	fdc42583          	lw	a1,-36(s0)
    3030:	0000c7b7          	lui	a5,0xc
    3034:	dfc78513          	addi	a0,a5,-516 # bdfc <etext+0x4c8>
    3038:	fa4fd0ef          	jal	7dc <cprintf>
    303c:	fdc42783          	lw	a5,-36(s0)
    3040:	00078513          	mv	a0,a5
    3044:	3a0000ef          	jal	33e4 <print_regs>
    3048:	fdc42783          	lw	a5,-36(s0)
    304c:	02c7c703          	lbu	a4,44(a5)
    3050:	02d7c783          	lbu	a5,45(a5)
    3054:	00879793          	slli	a5,a5,0x8
    3058:	00e7e7b3          	or	a5,a5,a4
    305c:	01079793          	slli	a5,a5,0x10
    3060:	0107d793          	srli	a5,a5,0x10
    3064:	00078593          	mv	a1,a5
    3068:	0000c7b7          	lui	a5,0xc
    306c:	e1078513          	addi	a0,a5,-496 # be10 <etext+0x4dc>
    3070:	f6cfd0ef          	jal	7dc <cprintf>
    3074:	fdc42783          	lw	a5,-36(s0)
    3078:	0287c703          	lbu	a4,40(a5)
    307c:	0297c783          	lbu	a5,41(a5)
    3080:	00879793          	slli	a5,a5,0x8
    3084:	00e7e7b3          	or	a5,a5,a4
    3088:	01079793          	slli	a5,a5,0x10
    308c:	0107d793          	srli	a5,a5,0x10
    3090:	00078593          	mv	a1,a5
    3094:	0000c7b7          	lui	a5,0xc
    3098:	e2478513          	addi	a0,a5,-476 # be24 <etext+0x4f0>
    309c:	f40fd0ef          	jal	7dc <cprintf>
    30a0:	fdc42783          	lw	a5,-36(s0)
    30a4:	0247c703          	lbu	a4,36(a5)
    30a8:	0257c783          	lbu	a5,37(a5)
    30ac:	00879793          	slli	a5,a5,0x8
    30b0:	00e7e7b3          	or	a5,a5,a4
    30b4:	01079793          	slli	a5,a5,0x10
    30b8:	0107d793          	srli	a5,a5,0x10
    30bc:	00078593          	mv	a1,a5
    30c0:	0000c7b7          	lui	a5,0xc
    30c4:	e3878513          	addi	a0,a5,-456 # be38 <etext+0x504>
    30c8:	f14fd0ef          	jal	7dc <cprintf>
    30cc:	fdc42783          	lw	a5,-36(s0)
    30d0:	0207c703          	lbu	a4,32(a5)
    30d4:	0217c783          	lbu	a5,33(a5)
    30d8:	00879793          	slli	a5,a5,0x8
    30dc:	00e7e7b3          	or	a5,a5,a4
    30e0:	01079793          	slli	a5,a5,0x10
    30e4:	0107d793          	srli	a5,a5,0x10
    30e8:	00078593          	mv	a1,a5
    30ec:	0000c7b7          	lui	a5,0xc
    30f0:	e4c78513          	addi	a0,a5,-436 # be4c <etext+0x518>
    30f4:	ee8fd0ef          	jal	7dc <cprintf>
    30f8:	fdc42783          	lw	a5,-36(s0)
    30fc:	0307c703          	lbu	a4,48(a5)
    3100:	0317c683          	lbu	a3,49(a5)
    3104:	00869693          	slli	a3,a3,0x8
    3108:	00e6e733          	or	a4,a3,a4
    310c:	0327c683          	lbu	a3,50(a5)
    3110:	01069693          	slli	a3,a3,0x10
    3114:	00e6e733          	or	a4,a3,a4
    3118:	0337c783          	lbu	a5,51(a5)
    311c:	01879793          	slli	a5,a5,0x18
    3120:	00e7e7b3          	or	a5,a5,a4
    3124:	00078493          	mv	s1,a5
    3128:	fdc42783          	lw	a5,-36(s0)
    312c:	0307c703          	lbu	a4,48(a5)
    3130:	0317c683          	lbu	a3,49(a5)
    3134:	00869693          	slli	a3,a3,0x8
    3138:	00e6e733          	or	a4,a3,a4
    313c:	0327c683          	lbu	a3,50(a5)
    3140:	01069693          	slli	a3,a3,0x10
    3144:	00e6e733          	or	a4,a3,a4
    3148:	0337c783          	lbu	a5,51(a5)
    314c:	01879793          	slli	a5,a5,0x18
    3150:	00e7e7b3          	or	a5,a5,a4
    3154:	00078513          	mv	a0,a5
    3158:	e01ff0ef          	jal	2f58 <trapname>
    315c:	00050793          	mv	a5,a0
    3160:	00078613          	mv	a2,a5
    3164:	00048593          	mv	a1,s1
    3168:	0000c7b7          	lui	a5,0xc
    316c:	e6078513          	addi	a0,a5,-416 # be60 <etext+0x52c>
    3170:	e6cfd0ef          	jal	7dc <cprintf>
    3174:	fdc42783          	lw	a5,-36(s0)
    3178:	0347c703          	lbu	a4,52(a5)
    317c:	0357c683          	lbu	a3,53(a5)
    3180:	00869693          	slli	a3,a3,0x8
    3184:	00e6e733          	or	a4,a3,a4
    3188:	0367c683          	lbu	a3,54(a5)
    318c:	01069693          	slli	a3,a3,0x10
    3190:	00e6e733          	or	a4,a3,a4
    3194:	0377c783          	lbu	a5,55(a5)
    3198:	01879793          	slli	a5,a5,0x18
    319c:	00e7e7b3          	or	a5,a5,a4
    31a0:	00078593          	mv	a1,a5
    31a4:	0000c7b7          	lui	a5,0xc
    31a8:	e7478513          	addi	a0,a5,-396 # be74 <etext+0x540>
    31ac:	e30fd0ef          	jal	7dc <cprintf>
    31b0:	fdc42783          	lw	a5,-36(s0)
    31b4:	0387c703          	lbu	a4,56(a5)
    31b8:	0397c683          	lbu	a3,57(a5)
    31bc:	00869693          	slli	a3,a3,0x8
    31c0:	00e6e733          	or	a4,a3,a4
    31c4:	03a7c683          	lbu	a3,58(a5)
    31c8:	01069693          	slli	a3,a3,0x10
    31cc:	00e6e733          	or	a4,a3,a4
    31d0:	03b7c783          	lbu	a5,59(a5)
    31d4:	01879793          	slli	a5,a5,0x18
    31d8:	00e7e7b3          	or	a5,a5,a4
    31dc:	00078593          	mv	a1,a5
    31e0:	0000c7b7          	lui	a5,0xc
    31e4:	e8478513          	addi	a0,a5,-380 # be84 <etext+0x550>
    31e8:	df4fd0ef          	jal	7dc <cprintf>
    31ec:	fdc42783          	lw	a5,-36(s0)
    31f0:	03c7c703          	lbu	a4,60(a5)
    31f4:	03d7c783          	lbu	a5,61(a5)
    31f8:	00879793          	slli	a5,a5,0x8
    31fc:	00e7e7b3          	or	a5,a5,a4
    3200:	01079793          	slli	a5,a5,0x10
    3204:	0107d793          	srli	a5,a5,0x10
    3208:	00078593          	mv	a1,a5
    320c:	0000c7b7          	lui	a5,0xc
    3210:	e9478513          	addi	a0,a5,-364 # be94 <etext+0x560>
    3214:	dc8fd0ef          	jal	7dc <cprintf>
    3218:	fdc42783          	lw	a5,-36(s0)
    321c:	0407c703          	lbu	a4,64(a5)
    3220:	0417c683          	lbu	a3,65(a5)
    3224:	00869693          	slli	a3,a3,0x8
    3228:	00e6e733          	or	a4,a3,a4
    322c:	0427c683          	lbu	a3,66(a5)
    3230:	01069693          	slli	a3,a3,0x10
    3234:	00e6e733          	or	a4,a3,a4
    3238:	0437c783          	lbu	a5,67(a5)
    323c:	01879793          	slli	a5,a5,0x18
    3240:	00e7e7b3          	or	a5,a5,a4
    3244:	00078593          	mv	a1,a5
    3248:	0000c7b7          	lui	a5,0xc
    324c:	ea878513          	addi	a0,a5,-344 # bea8 <etext+0x574>
    3250:	d8cfd0ef          	jal	7dc <cprintf>
    3254:	fe042623          	sw	zero,-20(s0)
    3258:	00100793          	li	a5,1
    325c:	fef42423          	sw	a5,-24(s0)
    3260:	09c0006f          	j	32fc <print_trapframe+0x2e8>
    3264:	fdc42783          	lw	a5,-36(s0)
    3268:	0407c703          	lbu	a4,64(a5)
    326c:	0417c683          	lbu	a3,65(a5)
    3270:	00869693          	slli	a3,a3,0x8
    3274:	00e6e733          	or	a4,a3,a4
    3278:	0427c683          	lbu	a3,66(a5)
    327c:	01069693          	slli	a3,a3,0x10
    3280:	00e6e733          	or	a4,a3,a4
    3284:	0437c783          	lbu	a5,67(a5)
    3288:	01879793          	slli	a5,a5,0x18
    328c:	00e7e7b3          	or	a5,a5,a4
    3290:	00078713          	mv	a4,a5
    3294:	fe842783          	lw	a5,-24(s0)
    3298:	00f777b3          	and	a5,a4,a5
    329c:	04078463          	beqz	a5,32e4 <print_trapframe+0x2d0>
    32a0:	0000e7b7          	lui	a5,0xe
    32a4:	fec42703          	lw	a4,-20(s0)
    32a8:	00271713          	slli	a4,a4,0x2
    32ac:	53478793          	addi	a5,a5,1332 # e534 <IA32flags>
    32b0:	00f707b3          	add	a5,a4,a5
    32b4:	0007a783          	lw	a5,0(a5)
    32b8:	02078663          	beqz	a5,32e4 <print_trapframe+0x2d0>
    32bc:	0000e7b7          	lui	a5,0xe
    32c0:	fec42703          	lw	a4,-20(s0)
    32c4:	00271713          	slli	a4,a4,0x2
    32c8:	53478793          	addi	a5,a5,1332 # e534 <IA32flags>
    32cc:	00f707b3          	add	a5,a4,a5
    32d0:	0007a783          	lw	a5,0(a5)
    32d4:	00078593          	mv	a1,a5
    32d8:	0000c7b7          	lui	a5,0xc
    32dc:	eb878513          	addi	a0,a5,-328 # beb8 <etext+0x584>
    32e0:	cfcfd0ef          	jal	7dc <cprintf>
    32e4:	fec42783          	lw	a5,-20(s0)
    32e8:	00178793          	addi	a5,a5,1
    32ec:	fef42623          	sw	a5,-20(s0)
    32f0:	fe842783          	lw	a5,-24(s0)
    32f4:	00179793          	slli	a5,a5,0x1
    32f8:	fef42423          	sw	a5,-24(s0)
    32fc:	fec42703          	lw	a4,-20(s0)
    3300:	01700793          	li	a5,23
    3304:	f6e7f0e3          	bleu	a4,a5,3264 <print_trapframe+0x250>
    3308:	fdc42783          	lw	a5,-36(s0)
    330c:	0407c703          	lbu	a4,64(a5)
    3310:	0417c683          	lbu	a3,65(a5)
    3314:	00869693          	slli	a3,a3,0x8
    3318:	00e6e733          	or	a4,a3,a4
    331c:	0427c683          	lbu	a3,66(a5)
    3320:	01069693          	slli	a3,a3,0x10
    3324:	00e6e733          	or	a4,a3,a4
    3328:	0437c783          	lbu	a5,67(a5)
    332c:	01879793          	slli	a5,a5,0x18
    3330:	00e7e7b3          	or	a5,a5,a4
    3334:	00078713          	mv	a4,a5
    3338:	000037b7          	lui	a5,0x3
    333c:	00f777b3          	and	a5,a4,a5
    3340:	00c7d793          	srli	a5,a5,0xc
    3344:	00078593          	mv	a1,a5
    3348:	0000c7b7          	lui	a5,0xc
    334c:	ebc78513          	addi	a0,a5,-324 # bebc <etext+0x588>
    3350:	c8cfd0ef          	jal	7dc <cprintf>
    3354:	fdc42503          	lw	a0,-36(s0)
    3358:	c75ff0ef          	jal	2fcc <trap_in_kernel>
    335c:	00050793          	mv	a5,a0
    3360:	06079663          	bnez	a5,33cc <print_trapframe+0x3b8>
    3364:	fdc42783          	lw	a5,-36(s0)
    3368:	0447c703          	lbu	a4,68(a5)
    336c:	0457c683          	lbu	a3,69(a5)
    3370:	00869693          	slli	a3,a3,0x8
    3374:	00e6e733          	or	a4,a3,a4
    3378:	0467c683          	lbu	a3,70(a5)
    337c:	01069693          	slli	a3,a3,0x10
    3380:	00e6e733          	or	a4,a3,a4
    3384:	0477c783          	lbu	a5,71(a5)
    3388:	01879793          	slli	a5,a5,0x18
    338c:	00e7e7b3          	or	a5,a5,a4
    3390:	00078593          	mv	a1,a5
    3394:	0000c7b7          	lui	a5,0xc
    3398:	ec878513          	addi	a0,a5,-312 # bec8 <etext+0x594>
    339c:	c40fd0ef          	jal	7dc <cprintf>
    33a0:	fdc42783          	lw	a5,-36(s0)
    33a4:	0487c703          	lbu	a4,72(a5)
    33a8:	0497c783          	lbu	a5,73(a5)
    33ac:	00879793          	slli	a5,a5,0x8
    33b0:	00e7e7b3          	or	a5,a5,a4
    33b4:	01079793          	slli	a5,a5,0x10
    33b8:	0107d793          	srli	a5,a5,0x10
    33bc:	00078593          	mv	a1,a5
    33c0:	0000c7b7          	lui	a5,0xc
    33c4:	ed878513          	addi	a0,a5,-296 # bed8 <etext+0x5a4>
    33c8:	c14fd0ef          	jal	7dc <cprintf>
    33cc:	00000013          	nop
    33d0:	02c12083          	lw	ra,44(sp)
    33d4:	02812403          	lw	s0,40(sp)
    33d8:	02412483          	lw	s1,36(sp)
    33dc:	03010113          	addi	sp,sp,48
    33e0:	00008067          	ret

000033e4 <print_regs>:
    33e4:	fe010113          	addi	sp,sp,-32
    33e8:	00112e23          	sw	ra,28(sp)
    33ec:	00812c23          	sw	s0,24(sp)
    33f0:	02010413          	addi	s0,sp,32
    33f4:	fea42623          	sw	a0,-20(s0)
    33f8:	fec42783          	lw	a5,-20(s0)
    33fc:	0007a783          	lw	a5,0(a5)
    3400:	00078593          	mv	a1,a5
    3404:	0000c7b7          	lui	a5,0xc
    3408:	eec78513          	addi	a0,a5,-276 # beec <etext+0x5b8>
    340c:	bd0fd0ef          	jal	7dc <cprintf>
    3410:	fec42783          	lw	a5,-20(s0)
    3414:	0047a783          	lw	a5,4(a5)
    3418:	00078593          	mv	a1,a5
    341c:	0000c7b7          	lui	a5,0xc
    3420:	efc78513          	addi	a0,a5,-260 # befc <etext+0x5c8>
    3424:	bb8fd0ef          	jal	7dc <cprintf>
    3428:	fec42783          	lw	a5,-20(s0)
    342c:	0087a783          	lw	a5,8(a5)
    3430:	00078593          	mv	a1,a5
    3434:	0000c7b7          	lui	a5,0xc
    3438:	f0c78513          	addi	a0,a5,-244 # bf0c <etext+0x5d8>
    343c:	ba0fd0ef          	jal	7dc <cprintf>
    3440:	fec42783          	lw	a5,-20(s0)
    3444:	00c7a783          	lw	a5,12(a5)
    3448:	00078593          	mv	a1,a5
    344c:	0000c7b7          	lui	a5,0xc
    3450:	f1c78513          	addi	a0,a5,-228 # bf1c <etext+0x5e8>
    3454:	b88fd0ef          	jal	7dc <cprintf>
    3458:	fec42783          	lw	a5,-20(s0)
    345c:	0107a783          	lw	a5,16(a5)
    3460:	00078593          	mv	a1,a5
    3464:	0000c7b7          	lui	a5,0xc
    3468:	f2c78513          	addi	a0,a5,-212 # bf2c <etext+0x5f8>
    346c:	b70fd0ef          	jal	7dc <cprintf>
    3470:	fec42783          	lw	a5,-20(s0)
    3474:	0147a783          	lw	a5,20(a5)
    3478:	00078593          	mv	a1,a5
    347c:	0000c7b7          	lui	a5,0xc
    3480:	f3c78513          	addi	a0,a5,-196 # bf3c <etext+0x608>
    3484:	b58fd0ef          	jal	7dc <cprintf>
    3488:	fec42783          	lw	a5,-20(s0)
    348c:	0187a783          	lw	a5,24(a5)
    3490:	00078593          	mv	a1,a5
    3494:	0000c7b7          	lui	a5,0xc
    3498:	f4c78513          	addi	a0,a5,-180 # bf4c <etext+0x618>
    349c:	b40fd0ef          	jal	7dc <cprintf>
    34a0:	fec42783          	lw	a5,-20(s0)
    34a4:	01c7a783          	lw	a5,28(a5)
    34a8:	00078593          	mv	a1,a5
    34ac:	0000c7b7          	lui	a5,0xc
    34b0:	f5c78513          	addi	a0,a5,-164 # bf5c <etext+0x628>
    34b4:	b28fd0ef          	jal	7dc <cprintf>
    34b8:	00000013          	nop
    34bc:	01c12083          	lw	ra,28(sp)
    34c0:	01812403          	lw	s0,24(sp)
    34c4:	02010113          	addi	sp,sp,32
    34c8:	00008067          	ret

000034cc <prvSetNextTimerInterrupt>:
    34cc:	ff010113          	addi	sp,sp,-16
    34d0:	00812623          	sw	s0,12(sp)
    34d4:	01010413          	addi	s0,sp,16
    34d8:	321022f3          	csrr	t0,mtimecmp
    34dc:	0007a7b7          	lui	a5,0x7a
    34e0:	12078793          	addi	a5,a5,288 # 7a120 <realend+0xa120>
    34e4:	00f282b3          	add	t0,t0,a5
    34e8:	32129073          	csrw	mtimecmp,t0
    34ec:	00000013          	nop
    34f0:	00c12403          	lw	s0,12(sp)
    34f4:	01010113          	addi	sp,sp,16
    34f8:	00008067          	ret

000034fc <vPortSysTickHandler>:
    34fc:	ff010113          	addi	sp,sp,-16
    3500:	00112623          	sw	ra,12(sp)
    3504:	00812423          	sw	s0,8(sp)
    3508:	01010413          	addi	s0,sp,16
    350c:	fc1ff0ef          	jal	34cc <prvSetNextTimerInterrupt>
    3510:	0000c7b7          	lui	a5,0xc
    3514:	f6c78513          	addi	a0,a5,-148 # bf6c <etext+0x638>
    3518:	ac4fd0ef          	jal	7dc <cprintf>
    351c:	00000013          	nop
    3520:	00c12083          	lw	ra,12(sp)
    3524:	00812403          	lw	s0,8(sp)
    3528:	01010113          	addi	sp,sp,16
    352c:	00008067          	ret

00003530 <vPortSetupTimer>:
    3530:	ff010113          	addi	sp,sp,-16
    3534:	00812623          	sw	s0,12(sp)
    3538:	01010413          	addi	s0,sp,16
    353c:	701022f3          	csrr	t0,mtime
    3540:	0007a7b7          	lui	a5,0x7a
    3544:	12078793          	addi	a5,a5,288 # 7a120 <realend+0xa120>
    3548:	00f282b3          	add	t0,t0,a5
    354c:	32129073          	csrw	mtimecmp,t0
    3550:	08000793          	li	a5,128
    3554:	3047a073          	csrs	mie,a5
    3558:	00000013          	nop
    355c:	00c12403          	lw	s0,12(sp)
    3560:	01010113          	addi	sp,sp,16
    3564:	00008067          	ret

00003568 <pgfault_handler>:
    3568:	fe010113          	addi	sp,sp,-32
    356c:	00812e23          	sw	s0,28(sp)
    3570:	02010413          	addi	s0,sp,32
    3574:	fea42623          	sw	a0,-20(s0)
    3578:	00000013          	nop
    357c:	00078513          	mv	a0,a5
    3580:	01c12403          	lw	s0,28(sp)
    3584:	02010113          	addi	sp,sp,32
    3588:	00008067          	ret

0000358c <trap>:
    358c:	fe010113          	addi	sp,sp,-32
    3590:	00812e23          	sw	s0,28(sp)
    3594:	02010413          	addi	s0,sp,32
    3598:	fea42623          	sw	a0,-20(s0)
    359c:	00000013          	nop
    35a0:	01c12403          	lw	s0,28(sp)
    35a4:	02010113          	addi	sp,sp,32
    35a8:	00008067          	ret

000035ac <S2M>:
    35ac:	ff010113          	addi	sp,sp,-16
    35b0:	00112623          	sw	ra,12(sp)
    35b4:	00812423          	sw	s0,8(sp)
    35b8:	01010413          	addi	s0,sp,16
    35bc:	00000693          	li	a3,0
    35c0:	00000613          	li	a2,0
    35c4:	00100593          	li	a1,1
    35c8:	05000513          	li	a0,80
    35cc:	3b8060ef          	jal	9984 <syscall>
    35d0:	00000013          	nop
    35d4:	00c12083          	lw	ra,12(sp)
    35d8:	00812403          	lw	s0,8(sp)
    35dc:	01010113          	addi	sp,sp,16
    35e0:	00008067          	ret

000035e4 <TIMER_CMP_INT>:
    35e4:	f8010113          	addi	sp,sp,-128
    35e8:	00112023          	sw	ra,0(sp)
    35ec:	00212223          	sw	sp,4(sp)
    35f0:	00312423          	sw	gp,8(sp)
    35f4:	00412623          	sw	tp,12(sp)
    35f8:	00512823          	sw	t0,16(sp)
    35fc:	00612a23          	sw	t1,20(sp)
    3600:	00712c23          	sw	t2,24(sp)
    3604:	00812e23          	sw	s0,28(sp)
    3608:	02912023          	sw	s1,32(sp)
    360c:	02a12223          	sw	a0,36(sp)
    3610:	02b12423          	sw	a1,40(sp)
    3614:	02c12623          	sw	a2,44(sp)
    3618:	02d12823          	sw	a3,48(sp)
    361c:	02e12a23          	sw	a4,52(sp)
    3620:	02f12c23          	sw	a5,56(sp)
    3624:	03012e23          	sw	a6,60(sp)
    3628:	05112023          	sw	a7,64(sp)
    362c:	05212223          	sw	s2,68(sp)
    3630:	05312423          	sw	s3,72(sp)
    3634:	05412623          	sw	s4,76(sp)
    3638:	05512823          	sw	s5,80(sp)
    363c:	05612a23          	sw	s6,84(sp)
    3640:	05712c23          	sw	s7,88(sp)
    3644:	05812e23          	sw	s8,92(sp)
    3648:	07912023          	sw	s9,96(sp)
    364c:	07a12223          	sw	s10,100(sp)
    3650:	07b12423          	sw	s11,104(sp)
    3654:	07c12623          	sw	t3,108(sp)
    3658:	07d12823          	sw	t4,112(sp)
    365c:	07e12a23          	sw	t5,116(sp)
    3660:	07f12c23          	sw	t6,120(sp)
    3664:	0000c297          	auipc	t0,0xc
    3668:	f442a283          	lw	t0,-188(t0) # f5a8 <pxCurrentTCB>
    366c:	0022a023          	sw	sp,0(t0)
    3670:	341022f3          	csrr	t0,mepc
    3674:	06512e23          	sw	t0,124(sp)
    3678:	e85ff0ef          	jal	34fc <vPortSysTickHandler>
    367c:	0000c117          	auipc	sp,0xc
    3680:	f2c12103          	lw	sp,-212(sp) # f5a8 <pxCurrentTCB>
    3684:	00012103          	lw	sp,0(sp)
    3688:	07c12283          	lw	t0,124(sp)
    368c:	34129073          	csrw	mepc,t0
    3690:	03000293          	li	t0,48
    3694:	3002a073          	csrs	mstatus,t0
    3698:	00012083          	lw	ra,0(sp)
    369c:	00c12203          	lw	tp,12(sp)
    36a0:	01012283          	lw	t0,16(sp)
    36a4:	01412303          	lw	t1,20(sp)
    36a8:	01812383          	lw	t2,24(sp)
    36ac:	01c12403          	lw	s0,28(sp)
    36b0:	02012483          	lw	s1,32(sp)
    36b4:	02412503          	lw	a0,36(sp)
    36b8:	02812583          	lw	a1,40(sp)
    36bc:	02c12603          	lw	a2,44(sp)
    36c0:	03012683          	lw	a3,48(sp)
    36c4:	03412703          	lw	a4,52(sp)
    36c8:	03812783          	lw	a5,56(sp)
    36cc:	03c12803          	lw	a6,60(sp)
    36d0:	04012883          	lw	a7,64(sp)
    36d4:	04412903          	lw	s2,68(sp)
    36d8:	04812983          	lw	s3,72(sp)
    36dc:	04c12a03          	lw	s4,76(sp)
    36e0:	05012a83          	lw	s5,80(sp)
    36e4:	05412b03          	lw	s6,84(sp)
    36e8:	05812b83          	lw	s7,88(sp)
    36ec:	05c12c03          	lw	s8,92(sp)
    36f0:	06012c83          	lw	s9,96(sp)
    36f4:	06412d03          	lw	s10,100(sp)
    36f8:	06812d83          	lw	s11,104(sp)
    36fc:	06c12e03          	lw	t3,108(sp)
    3700:	07012e83          	lw	t4,112(sp)
    3704:	07412f03          	lw	t5,116(sp)
    3708:	07812f83          	lw	t6,120(sp)
    370c:	08010113          	addi	sp,sp,128
    3710:	10000073          	eret

00003714 <xPortStartScheduler>:
    3714:	e1dff0ef          	jal	3530 <vPortSetupTimer>
    3718:	0000c117          	auipc	sp,0xc
    371c:	e9012103          	lw	sp,-368(sp) # f5a8 <pxCurrentTCB>
    3720:	00012103          	lw	sp,0(sp)
    3724:	07c12283          	lw	t0,124(sp)
    3728:	34129073          	csrw	mepc,t0
    372c:	03000293          	li	t0,48
    3730:	3002a073          	csrs	mstatus,t0
    3734:	00012083          	lw	ra,0(sp)
    3738:	00c12203          	lw	tp,12(sp)
    373c:	01012283          	lw	t0,16(sp)
    3740:	01412303          	lw	t1,20(sp)
    3744:	01812383          	lw	t2,24(sp)
    3748:	01c12403          	lw	s0,28(sp)
    374c:	02012483          	lw	s1,32(sp)
    3750:	02412503          	lw	a0,36(sp)
    3754:	02812583          	lw	a1,40(sp)
    3758:	02c12603          	lw	a2,44(sp)
    375c:	03012683          	lw	a3,48(sp)
    3760:	03412703          	lw	a4,52(sp)
    3764:	03812783          	lw	a5,56(sp)
    3768:	03c12803          	lw	a6,60(sp)
    376c:	04012883          	lw	a7,64(sp)
    3770:	04412903          	lw	s2,68(sp)
    3774:	04812983          	lw	s3,72(sp)
    3778:	04c12a03          	lw	s4,76(sp)
    377c:	05012a83          	lw	s5,80(sp)
    3780:	05412b03          	lw	s6,84(sp)
    3784:	05812b83          	lw	s7,88(sp)
    3788:	05c12c03          	lw	s8,92(sp)
    378c:	06012c83          	lw	s9,96(sp)
    3790:	06412d03          	lw	s10,100(sp)
    3794:	06812d83          	lw	s11,104(sp)
    3798:	06c12e03          	lw	t3,108(sp)
    379c:	07012e83          	lw	t4,112(sp)
    37a0:	07412f03          	lw	t5,116(sp)
    37a4:	07812f83          	lw	t6,120(sp)
    37a8:	08010113          	addi	sp,sp,128
    37ac:	10000073          	eret

000037b0 <vPortEndScheduler>:
    37b0:	00008067          	ret

000037b4 <vPortYield>:
    37b4:	f8010113          	addi	sp,sp,-128
    37b8:	00112023          	sw	ra,0(sp)
    37bc:	00212223          	sw	sp,4(sp)
    37c0:	00312423          	sw	gp,8(sp)
    37c4:	00412623          	sw	tp,12(sp)
    37c8:	00512823          	sw	t0,16(sp)
    37cc:	00612a23          	sw	t1,20(sp)
    37d0:	00712c23          	sw	t2,24(sp)
    37d4:	00812e23          	sw	s0,28(sp)
    37d8:	02912023          	sw	s1,32(sp)
    37dc:	02a12223          	sw	a0,36(sp)
    37e0:	02b12423          	sw	a1,40(sp)
    37e4:	02c12623          	sw	a2,44(sp)
    37e8:	02d12823          	sw	a3,48(sp)
    37ec:	02e12a23          	sw	a4,52(sp)
    37f0:	02f12c23          	sw	a5,56(sp)
    37f4:	03012e23          	sw	a6,60(sp)
    37f8:	05112023          	sw	a7,64(sp)
    37fc:	05212223          	sw	s2,68(sp)
    3800:	05312423          	sw	s3,72(sp)
    3804:	05412623          	sw	s4,76(sp)
    3808:	05512823          	sw	s5,80(sp)
    380c:	05612a23          	sw	s6,84(sp)
    3810:	05712c23          	sw	s7,88(sp)
    3814:	05812e23          	sw	s8,92(sp)
    3818:	07912023          	sw	s9,96(sp)
    381c:	07a12223          	sw	s10,100(sp)
    3820:	07b12423          	sw	s11,104(sp)
    3824:	07c12623          	sw	t3,108(sp)
    3828:	07d12823          	sw	t4,112(sp)
    382c:	07e12a23          	sw	t5,116(sp)
    3830:	07f12c23          	sw	t6,120(sp)
    3834:	0000c297          	auipc	t0,0xc
    3838:	d742a283          	lw	t0,-652(t0) # f5a8 <pxCurrentTCB>
    383c:	0022a023          	sw	sp,0(t0)
    3840:	06112e23          	sw	ra,124(sp)
    3844:	0000c117          	auipc	sp,0xc
    3848:	d6412103          	lw	sp,-668(sp) # f5a8 <pxCurrentTCB>
    384c:	00012103          	lw	sp,0(sp)
    3850:	07c12283          	lw	t0,124(sp)
    3854:	34129073          	csrw	mepc,t0
    3858:	03000293          	li	t0,48
    385c:	3002a073          	csrs	mstatus,t0
    3860:	00012083          	lw	ra,0(sp)
    3864:	00c12203          	lw	tp,12(sp)
    3868:	01012283          	lw	t0,16(sp)
    386c:	01412303          	lw	t1,20(sp)
    3870:	01812383          	lw	t2,24(sp)
    3874:	01c12403          	lw	s0,28(sp)
    3878:	02012483          	lw	s1,32(sp)
    387c:	02412503          	lw	a0,36(sp)
    3880:	02812583          	lw	a1,40(sp)
    3884:	02c12603          	lw	a2,44(sp)
    3888:	03012683          	lw	a3,48(sp)
    388c:	03412703          	lw	a4,52(sp)
    3890:	03812783          	lw	a5,56(sp)
    3894:	03c12803          	lw	a6,60(sp)
    3898:	04012883          	lw	a7,64(sp)
    389c:	04412903          	lw	s2,68(sp)
    38a0:	04812983          	lw	s3,72(sp)
    38a4:	04c12a03          	lw	s4,76(sp)
    38a8:	05012a83          	lw	s5,80(sp)
    38ac:	05412b03          	lw	s6,84(sp)
    38b0:	05812b83          	lw	s7,88(sp)
    38b4:	05c12c03          	lw	s8,92(sp)
    38b8:	06012c83          	lw	s9,96(sp)
    38bc:	06412d03          	lw	s10,100(sp)
    38c0:	06812d83          	lw	s11,104(sp)
    38c4:	06c12e03          	lw	t3,108(sp)
    38c8:	07012e83          	lw	t4,112(sp)
    38cc:	07412f03          	lw	t5,116(sp)
    38d0:	07812f83          	lw	t6,120(sp)
    38d4:	08010113          	addi	sp,sp,128
    38d8:	10000073          	eret

000038dc <pa2page>:
    38dc:	fe010113          	addi	sp,sp,-32
    38e0:	00112e23          	sw	ra,28(sp)
    38e4:	00812c23          	sw	s0,24(sp)
    38e8:	02010413          	addi	s0,sp,32
    38ec:	fea42623          	sw	a0,-20(s0)
    38f0:	fec42783          	lw	a5,-20(s0)
    38f4:	00c7d713          	srli	a4,a5,0xc
    38f8:	0000e7b7          	lui	a5,0xe
    38fc:	5f07a783          	lw	a5,1520(a5) # e5f0 <npage>
    3900:	00f76e63          	bltu	a4,a5,391c <pa2page+0x40>
    3904:	0000c7b7          	lui	a5,0xc
    3908:	12878613          	addi	a2,a5,296 # c128 <excnames.1746+0x50>
    390c:	05800593          	li	a1,88
    3910:	0000c7b7          	lui	a5,0xc
    3914:	14878513          	addi	a0,a5,328 # c148 <excnames.1746+0x70>
    3918:	910fd0ef          	jal	a28 <__panic>
    391c:	0000f7b7          	lui	a5,0xf
    3920:	6bc7a703          	lw	a4,1724(a5) # f6bc <pages>
    3924:	fec42783          	lw	a5,-20(s0)
    3928:	00c7d793          	srli	a5,a5,0xc
    392c:	00579793          	slli	a5,a5,0x5
    3930:	00f707b3          	add	a5,a4,a5
    3934:	00078513          	mv	a0,a5
    3938:	01c12083          	lw	ra,28(sp)
    393c:	01812403          	lw	s0,24(sp)
    3940:	02010113          	addi	sp,sp,32
    3944:	00008067          	ret

00003948 <pde2page>:
    3948:	fe010113          	addi	sp,sp,-32
    394c:	00112e23          	sw	ra,28(sp)
    3950:	00812c23          	sw	s0,24(sp)
    3954:	02010413          	addi	s0,sp,32
    3958:	fea42623          	sw	a0,-20(s0)
    395c:	fec42703          	lw	a4,-20(s0)
    3960:	fffff7b7          	lui	a5,0xfffff
    3964:	00f777b3          	and	a5,a4,a5
    3968:	00078513          	mv	a0,a5
    396c:	f71ff0ef          	jal	38dc <pa2page>
    3970:	00050793          	mv	a5,a0
    3974:	00078513          	mv	a0,a5
    3978:	01c12083          	lw	ra,28(sp)
    397c:	01812403          	lw	s0,24(sp)
    3980:	02010113          	addi	sp,sp,32
    3984:	00008067          	ret

00003988 <mm_create>:
    3988:	fe010113          	addi	sp,sp,-32
    398c:	00112e23          	sw	ra,28(sp)
    3990:	00812c23          	sw	s0,24(sp)
    3994:	02010413          	addi	s0,sp,32
    3998:	01800513          	li	a0,24
    399c:	189050ef          	jal	9324 <kmalloc>
    39a0:	fea42623          	sw	a0,-20(s0)
    39a4:	fec42783          	lw	a5,-20(s0)
    39a8:	06078063          	beqz	a5,3a08 <mm_create+0x80>
    39ac:	fec42783          	lw	a5,-20(s0)
    39b0:	fef42423          	sw	a5,-24(s0)
    39b4:	fe842783          	lw	a5,-24(s0)
    39b8:	fe842703          	lw	a4,-24(s0)
    39bc:	00e7a223          	sw	a4,4(a5) # fffff004 <realend+0xfff8f004>
    39c0:	fe842783          	lw	a5,-24(s0)
    39c4:	0047a703          	lw	a4,4(a5)
    39c8:	fe842783          	lw	a5,-24(s0)
    39cc:	00e7a023          	sw	a4,0(a5)
    39d0:	fec42783          	lw	a5,-20(s0)
    39d4:	0007a423          	sw	zero,8(a5)
    39d8:	fec42783          	lw	a5,-20(s0)
    39dc:	0007a623          	sw	zero,12(a5)
    39e0:	fec42783          	lw	a5,-20(s0)
    39e4:	0007a823          	sw	zero,16(a5)
    39e8:	0000e7b7          	lui	a5,0xe
    39ec:	5e87a783          	lw	a5,1512(a5) # e5e8 <swap_init_ok>
    39f0:	00078863          	beqz	a5,3a00 <mm_create+0x78>
    39f4:	fec42503          	lw	a0,-20(s0)
    39f8:	0f0010ef          	jal	4ae8 <swap_init_mm>
    39fc:	00c0006f          	j	3a08 <mm_create+0x80>
    3a00:	fec42783          	lw	a5,-20(s0)
    3a04:	0007aa23          	sw	zero,20(a5)
    3a08:	fec42783          	lw	a5,-20(s0)
    3a0c:	00078513          	mv	a0,a5
    3a10:	01c12083          	lw	ra,28(sp)
    3a14:	01812403          	lw	s0,24(sp)
    3a18:	02010113          	addi	sp,sp,32
    3a1c:	00008067          	ret

00003a20 <vma_create>:
    3a20:	fd010113          	addi	sp,sp,-48
    3a24:	02112623          	sw	ra,44(sp)
    3a28:	02812423          	sw	s0,40(sp)
    3a2c:	03010413          	addi	s0,sp,48
    3a30:	fca42e23          	sw	a0,-36(s0)
    3a34:	fcb42c23          	sw	a1,-40(s0)
    3a38:	fcc42a23          	sw	a2,-44(s0)
    3a3c:	01800513          	li	a0,24
    3a40:	0e5050ef          	jal	9324 <kmalloc>
    3a44:	fea42623          	sw	a0,-20(s0)
    3a48:	fec42783          	lw	a5,-20(s0)
    3a4c:	02078463          	beqz	a5,3a74 <vma_create+0x54>
    3a50:	fec42783          	lw	a5,-20(s0)
    3a54:	fdc42703          	lw	a4,-36(s0)
    3a58:	00e7a223          	sw	a4,4(a5)
    3a5c:	fec42783          	lw	a5,-20(s0)
    3a60:	fd842703          	lw	a4,-40(s0)
    3a64:	00e7a423          	sw	a4,8(a5)
    3a68:	fec42783          	lw	a5,-20(s0)
    3a6c:	fd442703          	lw	a4,-44(s0)
    3a70:	00e7a623          	sw	a4,12(a5)
    3a74:	fec42783          	lw	a5,-20(s0)
    3a78:	00078513          	mv	a0,a5
    3a7c:	02c12083          	lw	ra,44(sp)
    3a80:	02812403          	lw	s0,40(sp)
    3a84:	03010113          	addi	sp,sp,48
    3a88:	00008067          	ret

00003a8c <find_vma>:
    3a8c:	fc010113          	addi	sp,sp,-64
    3a90:	02812e23          	sw	s0,60(sp)
    3a94:	04010413          	addi	s0,sp,64
    3a98:	fca42623          	sw	a0,-52(s0)
    3a9c:	fcb42423          	sw	a1,-56(s0)
    3aa0:	fe042623          	sw	zero,-20(s0)
    3aa4:	fcc42783          	lw	a5,-52(s0)
    3aa8:	0c078463          	beqz	a5,3b70 <find_vma+0xe4>
    3aac:	fcc42783          	lw	a5,-52(s0)
    3ab0:	0087a783          	lw	a5,8(a5)
    3ab4:	fef42623          	sw	a5,-20(s0)
    3ab8:	fec42783          	lw	a5,-20(s0)
    3abc:	02078263          	beqz	a5,3ae0 <find_vma+0x54>
    3ac0:	fec42783          	lw	a5,-20(s0)
    3ac4:	0047a703          	lw	a4,4(a5)
    3ac8:	fc842783          	lw	a5,-56(s0)
    3acc:	00e7ea63          	bltu	a5,a4,3ae0 <find_vma+0x54>
    3ad0:	fec42783          	lw	a5,-20(s0)
    3ad4:	0087a703          	lw	a4,8(a5)
    3ad8:	fc842783          	lw	a5,-56(s0)
    3adc:	08e7e063          	bltu	a5,a4,3b5c <find_vma+0xd0>
    3ae0:	fe042423          	sw	zero,-24(s0)
    3ae4:	fcc42783          	lw	a5,-52(s0)
    3ae8:	fef42023          	sw	a5,-32(s0)
    3aec:	fe042783          	lw	a5,-32(s0)
    3af0:	fef42223          	sw	a5,-28(s0)
    3af4:	03c0006f          	j	3b30 <find_vma+0xa4>
    3af8:	fe442783          	lw	a5,-28(s0)
    3afc:	ff078793          	addi	a5,a5,-16
    3b00:	fef42623          	sw	a5,-20(s0)
    3b04:	fec42783          	lw	a5,-20(s0)
    3b08:	0047a703          	lw	a4,4(a5)
    3b0c:	fc842783          	lw	a5,-56(s0)
    3b10:	02e7e063          	bltu	a5,a4,3b30 <find_vma+0xa4>
    3b14:	fec42783          	lw	a5,-20(s0)
    3b18:	0087a703          	lw	a4,8(a5)
    3b1c:	fc842783          	lw	a5,-56(s0)
    3b20:	00e7f863          	bleu	a4,a5,3b30 <find_vma+0xa4>
    3b24:	00100793          	li	a5,1
    3b28:	fef42423          	sw	a5,-24(s0)
    3b2c:	0240006f          	j	3b50 <find_vma+0xc4>
    3b30:	fe442783          	lw	a5,-28(s0)
    3b34:	fcf42e23          	sw	a5,-36(s0)
    3b38:	fdc42783          	lw	a5,-36(s0)
    3b3c:	0047a783          	lw	a5,4(a5)
    3b40:	fef42223          	sw	a5,-28(s0)
    3b44:	fe442703          	lw	a4,-28(s0)
    3b48:	fe042783          	lw	a5,-32(s0)
    3b4c:	faf716e3          	bne	a4,a5,3af8 <find_vma+0x6c>
    3b50:	fe842783          	lw	a5,-24(s0)
    3b54:	00079463          	bnez	a5,3b5c <find_vma+0xd0>
    3b58:	fe042623          	sw	zero,-20(s0)
    3b5c:	fec42783          	lw	a5,-20(s0)
    3b60:	00078863          	beqz	a5,3b70 <find_vma+0xe4>
    3b64:	fcc42783          	lw	a5,-52(s0)
    3b68:	fec42703          	lw	a4,-20(s0)
    3b6c:	00e7a423          	sw	a4,8(a5)
    3b70:	fec42783          	lw	a5,-20(s0)
    3b74:	00078513          	mv	a0,a5
    3b78:	03c12403          	lw	s0,60(sp)
    3b7c:	04010113          	addi	sp,sp,64
    3b80:	00008067          	ret

00003b84 <check_vma_overlap>:
    3b84:	fe010113          	addi	sp,sp,-32
    3b88:	00112e23          	sw	ra,28(sp)
    3b8c:	00812c23          	sw	s0,24(sp)
    3b90:	02010413          	addi	s0,sp,32
    3b94:	fea42623          	sw	a0,-20(s0)
    3b98:	feb42423          	sw	a1,-24(s0)
    3b9c:	fec42783          	lw	a5,-20(s0)
    3ba0:	0047a703          	lw	a4,4(a5)
    3ba4:	fec42783          	lw	a5,-20(s0)
    3ba8:	0087a783          	lw	a5,8(a5)
    3bac:	02f76263          	bltu	a4,a5,3bd0 <check_vma_overlap+0x4c>
    3bb0:	0000c7b7          	lui	a5,0xc
    3bb4:	15878693          	addi	a3,a5,344 # c158 <excnames.1746+0x80>
    3bb8:	0000c7b7          	lui	a5,0xc
    3bbc:	17878613          	addi	a2,a5,376 # c178 <excnames.1746+0xa0>
    3bc0:	06800593          	li	a1,104
    3bc4:	0000c7b7          	lui	a5,0xc
    3bc8:	19078513          	addi	a0,a5,400 # c190 <excnames.1746+0xb8>
    3bcc:	e5dfc0ef          	jal	a28 <__panic>
    3bd0:	fec42783          	lw	a5,-20(s0)
    3bd4:	0087a703          	lw	a4,8(a5)
    3bd8:	fe842783          	lw	a5,-24(s0)
    3bdc:	0047a783          	lw	a5,4(a5)
    3be0:	02e7f263          	bleu	a4,a5,3c04 <check_vma_overlap+0x80>
    3be4:	0000c7b7          	lui	a5,0xc
    3be8:	1a078693          	addi	a3,a5,416 # c1a0 <excnames.1746+0xc8>
    3bec:	0000c7b7          	lui	a5,0xc
    3bf0:	17878613          	addi	a2,a5,376 # c178 <excnames.1746+0xa0>
    3bf4:	06900593          	li	a1,105
    3bf8:	0000c7b7          	lui	a5,0xc
    3bfc:	19078513          	addi	a0,a5,400 # c190 <excnames.1746+0xb8>
    3c00:	e29fc0ef          	jal	a28 <__panic>
    3c04:	fe842783          	lw	a5,-24(s0)
    3c08:	0047a703          	lw	a4,4(a5)
    3c0c:	fe842783          	lw	a5,-24(s0)
    3c10:	0087a783          	lw	a5,8(a5)
    3c14:	02f76263          	bltu	a4,a5,3c38 <check_vma_overlap+0xb4>
    3c18:	0000c7b7          	lui	a5,0xc
    3c1c:	1c078693          	addi	a3,a5,448 # c1c0 <excnames.1746+0xe8>
    3c20:	0000c7b7          	lui	a5,0xc
    3c24:	17878613          	addi	a2,a5,376 # c178 <excnames.1746+0xa0>
    3c28:	06a00593          	li	a1,106
    3c2c:	0000c7b7          	lui	a5,0xc
    3c30:	19078513          	addi	a0,a5,400 # c190 <excnames.1746+0xb8>
    3c34:	df5fc0ef          	jal	a28 <__panic>
    3c38:	00000013          	nop
    3c3c:	01c12083          	lw	ra,28(sp)
    3c40:	01812403          	lw	s0,24(sp)
    3c44:	02010113          	addi	sp,sp,32
    3c48:	00008067          	ret

00003c4c <insert_vma_struct>:
    3c4c:	fb010113          	addi	sp,sp,-80
    3c50:	04112623          	sw	ra,76(sp)
    3c54:	04812423          	sw	s0,72(sp)
    3c58:	05010413          	addi	s0,sp,80
    3c5c:	faa42e23          	sw	a0,-68(s0)
    3c60:	fab42c23          	sw	a1,-72(s0)
    3c64:	fb842783          	lw	a5,-72(s0)
    3c68:	0047a703          	lw	a4,4(a5)
    3c6c:	fb842783          	lw	a5,-72(s0)
    3c70:	0087a783          	lw	a5,8(a5)
    3c74:	02f76263          	bltu	a4,a5,3c98 <insert_vma_struct+0x4c>
    3c78:	0000c7b7          	lui	a5,0xc
    3c7c:	1e078693          	addi	a3,a5,480 # c1e0 <excnames.1746+0x108>
    3c80:	0000c7b7          	lui	a5,0xc
    3c84:	17878613          	addi	a2,a5,376 # c178 <excnames.1746+0xa0>
    3c88:	07100593          	li	a1,113
    3c8c:	0000c7b7          	lui	a5,0xc
    3c90:	19078513          	addi	a0,a5,400 # c190 <excnames.1746+0xb8>
    3c94:	d95fc0ef          	jal	a28 <__panic>
    3c98:	fbc42783          	lw	a5,-68(s0)
    3c9c:	fef42223          	sw	a5,-28(s0)
    3ca0:	fe442783          	lw	a5,-28(s0)
    3ca4:	fef42623          	sw	a5,-20(s0)
    3ca8:	fe442783          	lw	a5,-28(s0)
    3cac:	fef42423          	sw	a5,-24(s0)
    3cb0:	02c0006f          	j	3cdc <insert_vma_struct+0x90>
    3cb4:	fe842783          	lw	a5,-24(s0)
    3cb8:	ff078793          	addi	a5,a5,-16
    3cbc:	fcf42e23          	sw	a5,-36(s0)
    3cc0:	fdc42783          	lw	a5,-36(s0)
    3cc4:	0047a703          	lw	a4,4(a5)
    3cc8:	fb842783          	lw	a5,-72(s0)
    3ccc:	0047a783          	lw	a5,4(a5)
    3cd0:	02e7e863          	bltu	a5,a4,3d00 <insert_vma_struct+0xb4>
    3cd4:	fe842783          	lw	a5,-24(s0)
    3cd8:	fef42623          	sw	a5,-20(s0)
    3cdc:	fe842783          	lw	a5,-24(s0)
    3ce0:	fcf42823          	sw	a5,-48(s0)
    3ce4:	fd042783          	lw	a5,-48(s0)
    3ce8:	0047a783          	lw	a5,4(a5)
    3cec:	fef42423          	sw	a5,-24(s0)
    3cf0:	fe842703          	lw	a4,-24(s0)
    3cf4:	fe442783          	lw	a5,-28(s0)
    3cf8:	faf71ee3          	bne	a4,a5,3cb4 <insert_vma_struct+0x68>
    3cfc:	0080006f          	j	3d04 <insert_vma_struct+0xb8>
    3d00:	00000013          	nop
    3d04:	fec42783          	lw	a5,-20(s0)
    3d08:	fef42023          	sw	a5,-32(s0)
    3d0c:	fe042783          	lw	a5,-32(s0)
    3d10:	0047a783          	lw	a5,4(a5)
    3d14:	fcf42a23          	sw	a5,-44(s0)
    3d18:	fec42703          	lw	a4,-20(s0)
    3d1c:	fe442783          	lw	a5,-28(s0)
    3d20:	00f70c63          	beq	a4,a5,3d38 <insert_vma_struct+0xec>
    3d24:	fec42783          	lw	a5,-20(s0)
    3d28:	ff078793          	addi	a5,a5,-16
    3d2c:	fb842583          	lw	a1,-72(s0)
    3d30:	00078513          	mv	a0,a5
    3d34:	e51ff0ef          	jal	3b84 <check_vma_overlap>
    3d38:	fd442703          	lw	a4,-44(s0)
    3d3c:	fe442783          	lw	a5,-28(s0)
    3d40:	00f70c63          	beq	a4,a5,3d58 <insert_vma_struct+0x10c>
    3d44:	fd442783          	lw	a5,-44(s0)
    3d48:	ff078793          	addi	a5,a5,-16
    3d4c:	00078593          	mv	a1,a5
    3d50:	fb842503          	lw	a0,-72(s0)
    3d54:	e31ff0ef          	jal	3b84 <check_vma_overlap>
    3d58:	fb842783          	lw	a5,-72(s0)
    3d5c:	fbc42703          	lw	a4,-68(s0)
    3d60:	00e7a023          	sw	a4,0(a5)
    3d64:	fb842783          	lw	a5,-72(s0)
    3d68:	01078793          	addi	a5,a5,16
    3d6c:	fec42703          	lw	a4,-20(s0)
    3d70:	fce42c23          	sw	a4,-40(s0)
    3d74:	fcf42623          	sw	a5,-52(s0)
    3d78:	fd842783          	lw	a5,-40(s0)
    3d7c:	0047a783          	lw	a5,4(a5)
    3d80:	fcc42703          	lw	a4,-52(s0)
    3d84:	fce42423          	sw	a4,-56(s0)
    3d88:	fd842703          	lw	a4,-40(s0)
    3d8c:	fce42223          	sw	a4,-60(s0)
    3d90:	fcf42023          	sw	a5,-64(s0)
    3d94:	fc042783          	lw	a5,-64(s0)
    3d98:	fc842703          	lw	a4,-56(s0)
    3d9c:	00e7a023          	sw	a4,0(a5)
    3da0:	fc042783          	lw	a5,-64(s0)
    3da4:	0007a703          	lw	a4,0(a5)
    3da8:	fc442783          	lw	a5,-60(s0)
    3dac:	00e7a223          	sw	a4,4(a5)
    3db0:	fc842783          	lw	a5,-56(s0)
    3db4:	fc042703          	lw	a4,-64(s0)
    3db8:	00e7a223          	sw	a4,4(a5)
    3dbc:	fc842783          	lw	a5,-56(s0)
    3dc0:	fc442703          	lw	a4,-60(s0)
    3dc4:	00e7a023          	sw	a4,0(a5)
    3dc8:	fbc42783          	lw	a5,-68(s0)
    3dcc:	0107a783          	lw	a5,16(a5)
    3dd0:	00178713          	addi	a4,a5,1
    3dd4:	fbc42783          	lw	a5,-68(s0)
    3dd8:	00e7a823          	sw	a4,16(a5)
    3ddc:	00000013          	nop
    3de0:	04c12083          	lw	ra,76(sp)
    3de4:	04812403          	lw	s0,72(sp)
    3de8:	05010113          	addi	sp,sp,80
    3dec:	00008067          	ret

00003df0 <mm_destroy>:
    3df0:	fc010113          	addi	sp,sp,-64
    3df4:	02112e23          	sw	ra,60(sp)
    3df8:	02812c23          	sw	s0,56(sp)
    3dfc:	04010413          	addi	s0,sp,64
    3e00:	fca42623          	sw	a0,-52(s0)
    3e04:	fcc42783          	lw	a5,-52(s0)
    3e08:	fef42623          	sw	a5,-20(s0)
    3e0c:	0500006f          	j	3e5c <mm_destroy+0x6c>
    3e10:	fe842783          	lw	a5,-24(s0)
    3e14:	fef42023          	sw	a5,-32(s0)
    3e18:	fe042783          	lw	a5,-32(s0)
    3e1c:	0007a703          	lw	a4,0(a5)
    3e20:	fe042783          	lw	a5,-32(s0)
    3e24:	0047a783          	lw	a5,4(a5)
    3e28:	fce42e23          	sw	a4,-36(s0)
    3e2c:	fcf42c23          	sw	a5,-40(s0)
    3e30:	fdc42783          	lw	a5,-36(s0)
    3e34:	fd842703          	lw	a4,-40(s0)
    3e38:	00e7a223          	sw	a4,4(a5)
    3e3c:	fd842783          	lw	a5,-40(s0)
    3e40:	fdc42703          	lw	a4,-36(s0)
    3e44:	00e7a023          	sw	a4,0(a5)
    3e48:	fe842783          	lw	a5,-24(s0)
    3e4c:	ff078793          	addi	a5,a5,-16
    3e50:	01800593          	li	a1,24
    3e54:	00078513          	mv	a0,a5
    3e58:	590050ef          	jal	93e8 <kfree>
    3e5c:	fec42783          	lw	a5,-20(s0)
    3e60:	fef42223          	sw	a5,-28(s0)
    3e64:	fe442783          	lw	a5,-28(s0)
    3e68:	0047a783          	lw	a5,4(a5)
    3e6c:	fef42423          	sw	a5,-24(s0)
    3e70:	fe842703          	lw	a4,-24(s0)
    3e74:	fec42783          	lw	a5,-20(s0)
    3e78:	f8f71ce3          	bne	a4,a5,3e10 <mm_destroy+0x20>
    3e7c:	01800593          	li	a1,24
    3e80:	fcc42503          	lw	a0,-52(s0)
    3e84:	564050ef          	jal	93e8 <kfree>
    3e88:	fc042623          	sw	zero,-52(s0)
    3e8c:	00000013          	nop
    3e90:	03c12083          	lw	ra,60(sp)
    3e94:	03812403          	lw	s0,56(sp)
    3e98:	04010113          	addi	sp,sp,64
    3e9c:	00008067          	ret

00003ea0 <vmm_init>:
    3ea0:	ff010113          	addi	sp,sp,-16
    3ea4:	00112623          	sw	ra,12(sp)
    3ea8:	00812423          	sw	s0,8(sp)
    3eac:	01010413          	addi	s0,sp,16
    3eb0:	018000ef          	jal	3ec8 <check_vmm>
    3eb4:	00000013          	nop
    3eb8:	00c12083          	lw	ra,12(sp)
    3ebc:	00812403          	lw	s0,8(sp)
    3ec0:	01010113          	addi	sp,sp,16
    3ec4:	00008067          	ret

00003ec8 <check_vmm>:
    3ec8:	fe010113          	addi	sp,sp,-32
    3ecc:	00112e23          	sw	ra,28(sp)
    3ed0:	00812c23          	sw	s0,24(sp)
    3ed4:	02010413          	addi	s0,sp,32
    3ed8:	261030ef          	jal	7938 <nr_free_pages>
    3edc:	fea42623          	sw	a0,-20(s0)
    3ee0:	058000ef          	jal	3f38 <check_vma_struct>
    3ee4:	598000ef          	jal	447c <check_pgfault>
    3ee8:	251030ef          	jal	7938 <nr_free_pages>
    3eec:	00050713          	mv	a4,a0
    3ef0:	fec42783          	lw	a5,-20(s0)
    3ef4:	02f70263          	beq	a4,a5,3f18 <check_vmm+0x50>
    3ef8:	0000c7b7          	lui	a5,0xc
    3efc:	1fc78693          	addi	a3,a5,508 # c1fc <excnames.1746+0x124>
    3f00:	0000c7b7          	lui	a5,0xc
    3f04:	17878613          	addi	a2,a5,376 # c178 <excnames.1746+0xa0>
    3f08:	0ab00593          	li	a1,171
    3f0c:	0000c7b7          	lui	a5,0xc
    3f10:	19078513          	addi	a0,a5,400 # c190 <excnames.1746+0xb8>
    3f14:	b15fc0ef          	jal	a28 <__panic>
    3f18:	0000c7b7          	lui	a5,0xc
    3f1c:	22478513          	addi	a0,a5,548 # c224 <excnames.1746+0x14c>
    3f20:	8bdfc0ef          	jal	7dc <cprintf>
    3f24:	00000013          	nop
    3f28:	01c12083          	lw	ra,28(sp)
    3f2c:	01812403          	lw	s0,24(sp)
    3f30:	02010113          	addi	sp,sp,32
    3f34:	00008067          	ret

00003f38 <check_vma_struct>:
    3f38:	fa010113          	addi	sp,sp,-96
    3f3c:	04112e23          	sw	ra,92(sp)
    3f40:	04812c23          	sw	s0,88(sp)
    3f44:	06010413          	addi	s0,sp,96
    3f48:	1f1030ef          	jal	7938 <nr_free_pages>
    3f4c:	fea42223          	sw	a0,-28(s0)
    3f50:	a39ff0ef          	jal	3988 <mm_create>
    3f54:	fea42023          	sw	a0,-32(s0)
    3f58:	fe042783          	lw	a5,-32(s0)
    3f5c:	02079263          	bnez	a5,3f80 <check_vma_struct+0x48>
    3f60:	0000c7b7          	lui	a5,0xc
    3f64:	23c78693          	addi	a3,a5,572 # c23c <excnames.1746+0x164>
    3f68:	0000c7b7          	lui	a5,0xc
    3f6c:	17878613          	addi	a2,a5,376 # c178 <excnames.1746+0xa0>
    3f70:	0b500593          	li	a1,181
    3f74:	0000c7b7          	lui	a5,0xc
    3f78:	19078513          	addi	a0,a5,400 # c190 <excnames.1746+0xb8>
    3f7c:	aadfc0ef          	jal	a28 <__panic>
    3f80:	00a00793          	li	a5,10
    3f84:	fcf42e23          	sw	a5,-36(s0)
    3f88:	fdc42783          	lw	a5,-36(s0)
    3f8c:	00179793          	slli	a5,a5,0x1
    3f90:	00279713          	slli	a4,a5,0x2
    3f94:	00e787b3          	add	a5,a5,a4
    3f98:	fcf42c23          	sw	a5,-40(s0)
    3f9c:	fdc42783          	lw	a5,-36(s0)
    3fa0:	fef42623          	sw	a5,-20(s0)
    3fa4:	0800006f          	j	4024 <check_vma_struct+0xec>
    3fa8:	fec42703          	lw	a4,-20(s0)
    3fac:	00070793          	mv	a5,a4
    3fb0:	00279793          	slli	a5,a5,0x2
    3fb4:	00e787b3          	add	a5,a5,a4
    3fb8:	00078693          	mv	a3,a5
    3fbc:	fec42703          	lw	a4,-20(s0)
    3fc0:	00070793          	mv	a5,a4
    3fc4:	00279793          	slli	a5,a5,0x2
    3fc8:	00e787b3          	add	a5,a5,a4
    3fcc:	00278793          	addi	a5,a5,2
    3fd0:	00000613          	li	a2,0
    3fd4:	00078593          	mv	a1,a5
    3fd8:	00068513          	mv	a0,a3
    3fdc:	a45ff0ef          	jal	3a20 <vma_create>
    3fe0:	fca42a23          	sw	a0,-44(s0)
    3fe4:	fd442783          	lw	a5,-44(s0)
    3fe8:	02079263          	bnez	a5,400c <check_vma_struct+0xd4>
    3fec:	0000c7b7          	lui	a5,0xc
    3ff0:	24878693          	addi	a3,a5,584 # c248 <excnames.1746+0x170>
    3ff4:	0000c7b7          	lui	a5,0xc
    3ff8:	17878613          	addi	a2,a5,376 # c178 <excnames.1746+0xa0>
    3ffc:	0bc00593          	li	a1,188
    4000:	0000c7b7          	lui	a5,0xc
    4004:	19078513          	addi	a0,a5,400 # c190 <excnames.1746+0xb8>
    4008:	a21fc0ef          	jal	a28 <__panic>
    400c:	fd442583          	lw	a1,-44(s0)
    4010:	fe042503          	lw	a0,-32(s0)
    4014:	c39ff0ef          	jal	3c4c <insert_vma_struct>
    4018:	fec42783          	lw	a5,-20(s0)
    401c:	fff78793          	addi	a5,a5,-1
    4020:	fef42623          	sw	a5,-20(s0)
    4024:	fec42783          	lw	a5,-20(s0)
    4028:	f8f040e3          	bgtz	a5,3fa8 <check_vma_struct+0x70>
    402c:	fdc42783          	lw	a5,-36(s0)
    4030:	00178793          	addi	a5,a5,1
    4034:	fef42623          	sw	a5,-20(s0)
    4038:	0800006f          	j	40b8 <check_vma_struct+0x180>
    403c:	fec42703          	lw	a4,-20(s0)
    4040:	00070793          	mv	a5,a4
    4044:	00279793          	slli	a5,a5,0x2
    4048:	00e787b3          	add	a5,a5,a4
    404c:	00078693          	mv	a3,a5
    4050:	fec42703          	lw	a4,-20(s0)
    4054:	00070793          	mv	a5,a4
    4058:	00279793          	slli	a5,a5,0x2
    405c:	00e787b3          	add	a5,a5,a4
    4060:	00278793          	addi	a5,a5,2
    4064:	00000613          	li	a2,0
    4068:	00078593          	mv	a1,a5
    406c:	00068513          	mv	a0,a3
    4070:	9b1ff0ef          	jal	3a20 <vma_create>
    4074:	fca42823          	sw	a0,-48(s0)
    4078:	fd042783          	lw	a5,-48(s0)
    407c:	02079263          	bnez	a5,40a0 <check_vma_struct+0x168>
    4080:	0000c7b7          	lui	a5,0xc
    4084:	24878693          	addi	a3,a5,584 # c248 <excnames.1746+0x170>
    4088:	0000c7b7          	lui	a5,0xc
    408c:	17878613          	addi	a2,a5,376 # c178 <excnames.1746+0xa0>
    4090:	0c200593          	li	a1,194
    4094:	0000c7b7          	lui	a5,0xc
    4098:	19078513          	addi	a0,a5,400 # c190 <excnames.1746+0xb8>
    409c:	98dfc0ef          	jal	a28 <__panic>
    40a0:	fd042583          	lw	a1,-48(s0)
    40a4:	fe042503          	lw	a0,-32(s0)
    40a8:	ba5ff0ef          	jal	3c4c <insert_vma_struct>
    40ac:	fec42783          	lw	a5,-20(s0)
    40b0:	00178793          	addi	a5,a5,1
    40b4:	fef42623          	sw	a5,-20(s0)
    40b8:	fec42703          	lw	a4,-20(s0)
    40bc:	fd842783          	lw	a5,-40(s0)
    40c0:	f6e7dee3          	ble	a4,a5,403c <check_vma_struct+0x104>
    40c4:	fe042783          	lw	a5,-32(s0)
    40c8:	faf42623          	sw	a5,-84(s0)
    40cc:	fac42783          	lw	a5,-84(s0)
    40d0:	0047a783          	lw	a5,4(a5)
    40d4:	fef42423          	sw	a5,-24(s0)
    40d8:	00100793          	li	a5,1
    40dc:	fef42623          	sw	a5,-20(s0)
    40e0:	0b80006f          	j	4198 <check_vma_struct+0x260>
    40e4:	fe042703          	lw	a4,-32(s0)
    40e8:	fe842783          	lw	a5,-24(s0)
    40ec:	02f71263          	bne	a4,a5,4110 <check_vma_struct+0x1d8>
    40f0:	0000c7b7          	lui	a5,0xc
    40f4:	25478693          	addi	a3,a5,596 # c254 <excnames.1746+0x17c>
    40f8:	0000c7b7          	lui	a5,0xc
    40fc:	17878613          	addi	a2,a5,376 # c178 <excnames.1746+0xa0>
    4100:	0c900593          	li	a1,201
    4104:	0000c7b7          	lui	a5,0xc
    4108:	19078513          	addi	a0,a5,400 # c190 <excnames.1746+0xb8>
    410c:	91dfc0ef          	jal	a28 <__panic>
    4110:	fe842783          	lw	a5,-24(s0)
    4114:	ff078793          	addi	a5,a5,-16
    4118:	fcf42423          	sw	a5,-56(s0)
    411c:	fc842783          	lw	a5,-56(s0)
    4120:	0047a683          	lw	a3,4(a5)
    4124:	fec42703          	lw	a4,-20(s0)
    4128:	00070793          	mv	a5,a4
    412c:	00279793          	slli	a5,a5,0x2
    4130:	00e787b3          	add	a5,a5,a4
    4134:	02f69263          	bne	a3,a5,4158 <check_vma_struct+0x220>
    4138:	fc842783          	lw	a5,-56(s0)
    413c:	0087a683          	lw	a3,8(a5)
    4140:	fec42703          	lw	a4,-20(s0)
    4144:	00070793          	mv	a5,a4
    4148:	00279793          	slli	a5,a5,0x2
    414c:	00e787b3          	add	a5,a5,a4
    4150:	00278793          	addi	a5,a5,2
    4154:	02f68263          	beq	a3,a5,4178 <check_vma_struct+0x240>
    4158:	0000c7b7          	lui	a5,0xc
    415c:	26c78693          	addi	a3,a5,620 # c26c <excnames.1746+0x194>
    4160:	0000c7b7          	lui	a5,0xc
    4164:	17878613          	addi	a2,a5,376 # c178 <excnames.1746+0xa0>
    4168:	0cb00593          	li	a1,203
    416c:	0000c7b7          	lui	a5,0xc
    4170:	19078513          	addi	a0,a5,400 # c190 <excnames.1746+0xb8>
    4174:	8b5fc0ef          	jal	a28 <__panic>
    4178:	fe842783          	lw	a5,-24(s0)
    417c:	fcf42623          	sw	a5,-52(s0)
    4180:	fcc42783          	lw	a5,-52(s0)
    4184:	0047a783          	lw	a5,4(a5)
    4188:	fef42423          	sw	a5,-24(s0)
    418c:	fec42783          	lw	a5,-20(s0)
    4190:	00178793          	addi	a5,a5,1
    4194:	fef42623          	sw	a5,-20(s0)
    4198:	fec42703          	lw	a4,-20(s0)
    419c:	fd842783          	lw	a5,-40(s0)
    41a0:	f4e7d2e3          	ble	a4,a5,40e4 <check_vma_struct+0x1ac>
    41a4:	00500793          	li	a5,5
    41a8:	fef42623          	sw	a5,-20(s0)
    41ac:	1d40006f          	j	4380 <check_vma_struct+0x448>
    41b0:	fec42783          	lw	a5,-20(s0)
    41b4:	00078593          	mv	a1,a5
    41b8:	fe042503          	lw	a0,-32(s0)
    41bc:	8d1ff0ef          	jal	3a8c <find_vma>
    41c0:	fca42223          	sw	a0,-60(s0)
    41c4:	fc442783          	lw	a5,-60(s0)
    41c8:	02079263          	bnez	a5,41ec <check_vma_struct+0x2b4>
    41cc:	0000c7b7          	lui	a5,0xc
    41d0:	2a478693          	addi	a3,a5,676 # c2a4 <excnames.1746+0x1cc>
    41d4:	0000c7b7          	lui	a5,0xc
    41d8:	17878613          	addi	a2,a5,376 # c178 <excnames.1746+0xa0>
    41dc:	0d100593          	li	a1,209
    41e0:	0000c7b7          	lui	a5,0xc
    41e4:	19078513          	addi	a0,a5,400 # c190 <excnames.1746+0xb8>
    41e8:	841fc0ef          	jal	a28 <__panic>
    41ec:	fec42783          	lw	a5,-20(s0)
    41f0:	00178793          	addi	a5,a5,1
    41f4:	00078593          	mv	a1,a5
    41f8:	fe042503          	lw	a0,-32(s0)
    41fc:	891ff0ef          	jal	3a8c <find_vma>
    4200:	fca42023          	sw	a0,-64(s0)
    4204:	fc042783          	lw	a5,-64(s0)
    4208:	02079263          	bnez	a5,422c <check_vma_struct+0x2f4>
    420c:	0000c7b7          	lui	a5,0xc
    4210:	2b478693          	addi	a3,a5,692 # c2b4 <excnames.1746+0x1dc>
    4214:	0000c7b7          	lui	a5,0xc
    4218:	17878613          	addi	a2,a5,376 # c178 <excnames.1746+0xa0>
    421c:	0d300593          	li	a1,211
    4220:	0000c7b7          	lui	a5,0xc
    4224:	19078513          	addi	a0,a5,400 # c190 <excnames.1746+0xb8>
    4228:	801fc0ef          	jal	a28 <__panic>
    422c:	fec42783          	lw	a5,-20(s0)
    4230:	00278793          	addi	a5,a5,2
    4234:	00078593          	mv	a1,a5
    4238:	fe042503          	lw	a0,-32(s0)
    423c:	851ff0ef          	jal	3a8c <find_vma>
    4240:	faa42e23          	sw	a0,-68(s0)
    4244:	fbc42783          	lw	a5,-68(s0)
    4248:	02078263          	beqz	a5,426c <check_vma_struct+0x334>
    424c:	0000c7b7          	lui	a5,0xc
    4250:	2c478693          	addi	a3,a5,708 # c2c4 <excnames.1746+0x1ec>
    4254:	0000c7b7          	lui	a5,0xc
    4258:	17878613          	addi	a2,a5,376 # c178 <excnames.1746+0xa0>
    425c:	0d500593          	li	a1,213
    4260:	0000c7b7          	lui	a5,0xc
    4264:	19078513          	addi	a0,a5,400 # c190 <excnames.1746+0xb8>
    4268:	fc0fc0ef          	jal	a28 <__panic>
    426c:	fec42783          	lw	a5,-20(s0)
    4270:	00378793          	addi	a5,a5,3
    4274:	00078593          	mv	a1,a5
    4278:	fe042503          	lw	a0,-32(s0)
    427c:	811ff0ef          	jal	3a8c <find_vma>
    4280:	faa42c23          	sw	a0,-72(s0)
    4284:	fb842783          	lw	a5,-72(s0)
    4288:	02078263          	beqz	a5,42ac <check_vma_struct+0x374>
    428c:	0000c7b7          	lui	a5,0xc
    4290:	2d478693          	addi	a3,a5,724 # c2d4 <excnames.1746+0x1fc>
    4294:	0000c7b7          	lui	a5,0xc
    4298:	17878613          	addi	a2,a5,376 # c178 <excnames.1746+0xa0>
    429c:	0d700593          	li	a1,215
    42a0:	0000c7b7          	lui	a5,0xc
    42a4:	19078513          	addi	a0,a5,400 # c190 <excnames.1746+0xb8>
    42a8:	f80fc0ef          	jal	a28 <__panic>
    42ac:	fec42783          	lw	a5,-20(s0)
    42b0:	00478793          	addi	a5,a5,4
    42b4:	00078593          	mv	a1,a5
    42b8:	fe042503          	lw	a0,-32(s0)
    42bc:	fd0ff0ef          	jal	3a8c <find_vma>
    42c0:	faa42a23          	sw	a0,-76(s0)
    42c4:	fb442783          	lw	a5,-76(s0)
    42c8:	02078263          	beqz	a5,42ec <check_vma_struct+0x3b4>
    42cc:	0000c7b7          	lui	a5,0xc
    42d0:	2e478693          	addi	a3,a5,740 # c2e4 <excnames.1746+0x20c>
    42d4:	0000c7b7          	lui	a5,0xc
    42d8:	17878613          	addi	a2,a5,376 # c178 <excnames.1746+0xa0>
    42dc:	0d900593          	li	a1,217
    42e0:	0000c7b7          	lui	a5,0xc
    42e4:	19078513          	addi	a0,a5,400 # c190 <excnames.1746+0xb8>
    42e8:	f40fc0ef          	jal	a28 <__panic>
    42ec:	fc442783          	lw	a5,-60(s0)
    42f0:	0047a703          	lw	a4,4(a5)
    42f4:	fec42783          	lw	a5,-20(s0)
    42f8:	00f71c63          	bne	a4,a5,4310 <check_vma_struct+0x3d8>
    42fc:	fc442783          	lw	a5,-60(s0)
    4300:	0087a783          	lw	a5,8(a5)
    4304:	fec42703          	lw	a4,-20(s0)
    4308:	00270713          	addi	a4,a4,2
    430c:	02e78263          	beq	a5,a4,4330 <check_vma_struct+0x3f8>
    4310:	0000c7b7          	lui	a5,0xc
    4314:	2f478693          	addi	a3,a5,756 # c2f4 <excnames.1746+0x21c>
    4318:	0000c7b7          	lui	a5,0xc
    431c:	17878613          	addi	a2,a5,376 # c178 <excnames.1746+0xa0>
    4320:	0db00593          	li	a1,219
    4324:	0000c7b7          	lui	a5,0xc
    4328:	19078513          	addi	a0,a5,400 # c190 <excnames.1746+0xb8>
    432c:	efcfc0ef          	jal	a28 <__panic>
    4330:	fc042783          	lw	a5,-64(s0)
    4334:	0047a703          	lw	a4,4(a5)
    4338:	fec42783          	lw	a5,-20(s0)
    433c:	00f71c63          	bne	a4,a5,4354 <check_vma_struct+0x41c>
    4340:	fc042783          	lw	a5,-64(s0)
    4344:	0087a783          	lw	a5,8(a5)
    4348:	fec42703          	lw	a4,-20(s0)
    434c:	00270713          	addi	a4,a4,2
    4350:	02e78263          	beq	a5,a4,4374 <check_vma_struct+0x43c>
    4354:	0000c7b7          	lui	a5,0xc
    4358:	32478693          	addi	a3,a5,804 # c324 <excnames.1746+0x24c>
    435c:	0000c7b7          	lui	a5,0xc
    4360:	17878613          	addi	a2,a5,376 # c178 <excnames.1746+0xa0>
    4364:	0dc00593          	li	a1,220
    4368:	0000c7b7          	lui	a5,0xc
    436c:	19078513          	addi	a0,a5,400 # c190 <excnames.1746+0xb8>
    4370:	eb8fc0ef          	jal	a28 <__panic>
    4374:	fec42783          	lw	a5,-20(s0)
    4378:	00578793          	addi	a5,a5,5
    437c:	fef42623          	sw	a5,-20(s0)
    4380:	fd842703          	lw	a4,-40(s0)
    4384:	00070793          	mv	a5,a4
    4388:	00279793          	slli	a5,a5,0x2
    438c:	00e78733          	add	a4,a5,a4
    4390:	fec42783          	lw	a5,-20(s0)
    4394:	e0f75ee3          	ble	a5,a4,41b0 <check_vma_struct+0x278>
    4398:	00400793          	li	a5,4
    439c:	fef42623          	sw	a5,-20(s0)
    43a0:	07c0006f          	j	441c <check_vma_struct+0x4e4>
    43a4:	fec42783          	lw	a5,-20(s0)
    43a8:	00078593          	mv	a1,a5
    43ac:	fe042503          	lw	a0,-32(s0)
    43b0:	edcff0ef          	jal	3a8c <find_vma>
    43b4:	faa42823          	sw	a0,-80(s0)
    43b8:	fb042783          	lw	a5,-80(s0)
    43bc:	02078663          	beqz	a5,43e8 <check_vma_struct+0x4b0>
    43c0:	fb042783          	lw	a5,-80(s0)
    43c4:	0047a703          	lw	a4,4(a5)
    43c8:	fb042783          	lw	a5,-80(s0)
    43cc:	0087a783          	lw	a5,8(a5)
    43d0:	00078693          	mv	a3,a5
    43d4:	00070613          	mv	a2,a4
    43d8:	fec42583          	lw	a1,-20(s0)
    43dc:	0000c7b7          	lui	a5,0xc
    43e0:	35478513          	addi	a0,a5,852 # c354 <excnames.1746+0x27c>
    43e4:	bf8fc0ef          	jal	7dc <cprintf>
    43e8:	fb042783          	lw	a5,-80(s0)
    43ec:	02078263          	beqz	a5,4410 <check_vma_struct+0x4d8>
    43f0:	0000c7b7          	lui	a5,0xc
    43f4:	37c78693          	addi	a3,a5,892 # c37c <excnames.1746+0x2a4>
    43f8:	0000c7b7          	lui	a5,0xc
    43fc:	17878613          	addi	a2,a5,376 # c178 <excnames.1746+0xa0>
    4400:	0e400593          	li	a1,228
    4404:	0000c7b7          	lui	a5,0xc
    4408:	19078513          	addi	a0,a5,400 # c190 <excnames.1746+0xb8>
    440c:	e1cfc0ef          	jal	a28 <__panic>
    4410:	fec42783          	lw	a5,-20(s0)
    4414:	fff78793          	addi	a5,a5,-1
    4418:	fef42623          	sw	a5,-20(s0)
    441c:	fec42783          	lw	a5,-20(s0)
    4420:	f807d2e3          	bgez	a5,43a4 <check_vma_struct+0x46c>
    4424:	fe042503          	lw	a0,-32(s0)
    4428:	9c9ff0ef          	jal	3df0 <mm_destroy>
    442c:	50c030ef          	jal	7938 <nr_free_pages>
    4430:	00050713          	mv	a4,a0
    4434:	fe442783          	lw	a5,-28(s0)
    4438:	02f70263          	beq	a4,a5,445c <check_vma_struct+0x524>
    443c:	0000c7b7          	lui	a5,0xc
    4440:	1fc78693          	addi	a3,a5,508 # c1fc <excnames.1746+0x124>
    4444:	0000c7b7          	lui	a5,0xc
    4448:	17878613          	addi	a2,a5,376 # c178 <excnames.1746+0xa0>
    444c:	0e900593          	li	a1,233
    4450:	0000c7b7          	lui	a5,0xc
    4454:	19078513          	addi	a0,a5,400 # c190 <excnames.1746+0xb8>
    4458:	dd0fc0ef          	jal	a28 <__panic>
    445c:	0000c7b7          	lui	a5,0xc
    4460:	39078513          	addi	a0,a5,912 # c390 <excnames.1746+0x2b8>
    4464:	b78fc0ef          	jal	7dc <cprintf>
    4468:	00000013          	nop
    446c:	05c12083          	lw	ra,92(sp)
    4470:	05812403          	lw	s0,88(sp)
    4474:	06010113          	addi	sp,sp,96
    4478:	00008067          	ret

0000447c <check_pgfault>:
    447c:	fd010113          	addi	sp,sp,-48
    4480:	02112623          	sw	ra,44(sp)
    4484:	02812423          	sw	s0,40(sp)
    4488:	03010413          	addi	s0,sp,48
    448c:	4ac030ef          	jal	7938 <nr_free_pages>
    4490:	fea42223          	sw	a0,-28(s0)
    4494:	cf4ff0ef          	jal	3988 <mm_create>
    4498:	00050713          	mv	a4,a0
    449c:	0000f7b7          	lui	a5,0xf
    44a0:	60e7a023          	sw	a4,1536(a5) # f600 <check_mm_struct>
    44a4:	0000f7b7          	lui	a5,0xf
    44a8:	6007a783          	lw	a5,1536(a5) # f600 <check_mm_struct>
    44ac:	02079263          	bnez	a5,44d0 <check_pgfault+0x54>
    44b0:	0000c7b7          	lui	a5,0xc
    44b4:	3b078693          	addi	a3,a5,944 # c3b0 <excnames.1746+0x2d8>
    44b8:	0000c7b7          	lui	a5,0xc
    44bc:	17878613          	addi	a2,a5,376 # c178 <excnames.1746+0xa0>
    44c0:	0f700593          	li	a1,247
    44c4:	0000c7b7          	lui	a5,0xc
    44c8:	19078513          	addi	a0,a5,400 # c190 <excnames.1746+0xb8>
    44cc:	d5cfc0ef          	jal	a28 <__panic>
    44d0:	0000f7b7          	lui	a5,0xf
    44d4:	6007a783          	lw	a5,1536(a5) # f600 <check_mm_struct>
    44d8:	fef42023          	sw	a5,-32(s0)
    44dc:	0000e7b7          	lui	a5,0xe
    44e0:	5f47a703          	lw	a4,1524(a5) # e5f4 <boot_pgdir>
    44e4:	fe042783          	lw	a5,-32(s0)
    44e8:	00e7a623          	sw	a4,12(a5)
    44ec:	fe042783          	lw	a5,-32(s0)
    44f0:	00c7a783          	lw	a5,12(a5)
    44f4:	fcf42e23          	sw	a5,-36(s0)
    44f8:	fdc42783          	lw	a5,-36(s0)
    44fc:	40078793          	addi	a5,a5,1024
    4500:	0007a783          	lw	a5,0(a5)
    4504:	02078263          	beqz	a5,4528 <check_pgfault+0xac>
    4508:	0000c7b7          	lui	a5,0xc
    450c:	3c878693          	addi	a3,a5,968 # c3c8 <excnames.1746+0x2f0>
    4510:	0000c7b7          	lui	a5,0xc
    4514:	17878613          	addi	a2,a5,376 # c178 <excnames.1746+0xa0>
    4518:	0fb00593          	li	a1,251
    451c:	0000c7b7          	lui	a5,0xc
    4520:	19078513          	addi	a0,a5,400 # c190 <excnames.1746+0xb8>
    4524:	d04fc0ef          	jal	a28 <__panic>
    4528:	00200613          	li	a2,2
    452c:	504005b7          	lui	a1,0x50400
    4530:	50000537          	lui	a0,0x50000
    4534:	cecff0ef          	jal	3a20 <vma_create>
    4538:	fca42c23          	sw	a0,-40(s0)
    453c:	fd842783          	lw	a5,-40(s0)
    4540:	02079263          	bnez	a5,4564 <check_pgfault+0xe8>
    4544:	0000c7b7          	lui	a5,0xc
    4548:	24878693          	addi	a3,a5,584 # c248 <excnames.1746+0x170>
    454c:	0000c7b7          	lui	a5,0xc
    4550:	17878613          	addi	a2,a5,376 # c178 <excnames.1746+0xa0>
    4554:	0fe00593          	li	a1,254
    4558:	0000c7b7          	lui	a5,0xc
    455c:	19078513          	addi	a0,a5,400 # c190 <excnames.1746+0xb8>
    4560:	cc8fc0ef          	jal	a28 <__panic>
    4564:	fd842583          	lw	a1,-40(s0)
    4568:	fe042503          	lw	a0,-32(s0)
    456c:	ee0ff0ef          	jal	3c4c <insert_vma_struct>
    4570:	500007b7          	lui	a5,0x50000
    4574:	10078793          	addi	a5,a5,256 # 50000100 <realend+0x4ff90100>
    4578:	fcf42a23          	sw	a5,-44(s0)
    457c:	fd442583          	lw	a1,-44(s0)
    4580:	fe042503          	lw	a0,-32(s0)
    4584:	d08ff0ef          	jal	3a8c <find_vma>
    4588:	00050713          	mv	a4,a0
    458c:	fd842783          	lw	a5,-40(s0)
    4590:	02f70263          	beq	a4,a5,45b4 <check_pgfault+0x138>
    4594:	0000c7b7          	lui	a5,0xc
    4598:	3d878693          	addi	a3,a5,984 # c3d8 <excnames.1746+0x300>
    459c:	0000c7b7          	lui	a5,0xc
    45a0:	17878613          	addi	a2,a5,376 # c178 <excnames.1746+0xa0>
    45a4:	10200593          	li	a1,258
    45a8:	0000c7b7          	lui	a5,0xc
    45ac:	19078513          	addi	a0,a5,400 # c190 <excnames.1746+0xb8>
    45b0:	c78fc0ef          	jal	a28 <__panic>
    45b4:	fe042423          	sw	zero,-24(s0)
    45b8:	0000c7b7          	lui	a5,0xc
    45bc:	3f478513          	addi	a0,a5,1012 # c3f4 <excnames.1746+0x31c>
    45c0:	a1cfc0ef          	jal	7dc <cprintf>
    45c4:	fe042623          	sw	zero,-20(s0)
    45c8:	04c0006f          	j	4614 <check_pgfault+0x198>
    45cc:	fec42583          	lw	a1,-20(s0)
    45d0:	0000c7b7          	lui	a5,0xc
    45d4:	40078513          	addi	a0,a5,1024 # c400 <excnames.1746+0x328>
    45d8:	a04fc0ef          	jal	7dc <cprintf>
    45dc:	fec42703          	lw	a4,-20(s0)
    45e0:	fd442783          	lw	a5,-44(s0)
    45e4:	00f707b3          	add	a5,a4,a5
    45e8:	00078713          	mv	a4,a5
    45ec:	fec42783          	lw	a5,-20(s0)
    45f0:	0ff7f793          	andi	a5,a5,255
    45f4:	00f70023          	sb	a5,0(a4)
    45f8:	fe842703          	lw	a4,-24(s0)
    45fc:	fec42783          	lw	a5,-20(s0)
    4600:	00f707b3          	add	a5,a4,a5
    4604:	fef42423          	sw	a5,-24(s0)
    4608:	fec42783          	lw	a5,-20(s0)
    460c:	00178793          	addi	a5,a5,1
    4610:	fef42623          	sw	a5,-20(s0)
    4614:	fec42703          	lw	a4,-20(s0)
    4618:	06300793          	li	a5,99
    461c:	fae7d8e3          	ble	a4,a5,45cc <check_pgfault+0x150>
    4620:	fe042623          	sw	zero,-20(s0)
    4624:	0300006f          	j	4654 <check_pgfault+0x1d8>
    4628:	fec42703          	lw	a4,-20(s0)
    462c:	fd442783          	lw	a5,-44(s0)
    4630:	00f707b3          	add	a5,a4,a5
    4634:	0007c783          	lbu	a5,0(a5)
    4638:	00078713          	mv	a4,a5
    463c:	fe842783          	lw	a5,-24(s0)
    4640:	40e787b3          	sub	a5,a5,a4
    4644:	fef42423          	sw	a5,-24(s0)
    4648:	fec42783          	lw	a5,-20(s0)
    464c:	00178793          	addi	a5,a5,1
    4650:	fef42623          	sw	a5,-20(s0)
    4654:	fec42703          	lw	a4,-20(s0)
    4658:	06300793          	li	a5,99
    465c:	fce7d6e3          	ble	a4,a5,4628 <check_pgfault+0x1ac>
    4660:	fe842783          	lw	a5,-24(s0)
    4664:	02078263          	beqz	a5,4688 <check_pgfault+0x20c>
    4668:	0000c7b7          	lui	a5,0xc
    466c:	40478693          	addi	a3,a5,1028 # c404 <excnames.1746+0x32c>
    4670:	0000c7b7          	lui	a5,0xc
    4674:	17878613          	addi	a2,a5,376 # c178 <excnames.1746+0xa0>
    4678:	11000593          	li	a1,272
    467c:	0000c7b7          	lui	a5,0xc
    4680:	19078513          	addi	a0,a5,400 # c190 <excnames.1746+0xb8>
    4684:	ba4fc0ef          	jal	a28 <__panic>
    4688:	fd442783          	lw	a5,-44(s0)
    468c:	fcf42823          	sw	a5,-48(s0)
    4690:	fd042703          	lw	a4,-48(s0)
    4694:	fffff7b7          	lui	a5,0xfffff
    4698:	00f777b3          	and	a5,a4,a5
    469c:	00078593          	mv	a1,a5
    46a0:	fdc42503          	lw	a0,-36(s0)
    46a4:	641030ef          	jal	84e4 <page_remove>
    46a8:	fdc42783          	lw	a5,-36(s0)
    46ac:	40078793          	addi	a5,a5,1024 # fffff400 <realend+0xfff8f400>
    46b0:	0007a783          	lw	a5,0(a5)
    46b4:	00078513          	mv	a0,a5
    46b8:	a90ff0ef          	jal	3948 <pde2page>
    46bc:	00050793          	mv	a5,a0
    46c0:	00100593          	li	a1,1
    46c4:	00078513          	mv	a0,a5
    46c8:	21c030ef          	jal	78e4 <free_pages>
    46cc:	fdc42783          	lw	a5,-36(s0)
    46d0:	40078793          	addi	a5,a5,1024
    46d4:	0007a023          	sw	zero,0(a5)
    46d8:	fe042783          	lw	a5,-32(s0)
    46dc:	0007a623          	sw	zero,12(a5)
    46e0:	fe042503          	lw	a0,-32(s0)
    46e4:	f0cff0ef          	jal	3df0 <mm_destroy>
    46e8:	0000f7b7          	lui	a5,0xf
    46ec:	6007a023          	sw	zero,1536(a5) # f600 <check_mm_struct>
    46f0:	248030ef          	jal	7938 <nr_free_pages>
    46f4:	00050713          	mv	a4,a0
    46f8:	fe442783          	lw	a5,-28(s0)
    46fc:	02f70263          	beq	a4,a5,4720 <check_pgfault+0x2a4>
    4700:	0000c7b7          	lui	a5,0xc
    4704:	1fc78693          	addi	a3,a5,508 # c1fc <excnames.1746+0x124>
    4708:	0000c7b7          	lui	a5,0xc
    470c:	17878613          	addi	a2,a5,376 # c178 <excnames.1746+0xa0>
    4710:	11a00593          	li	a1,282
    4714:	0000c7b7          	lui	a5,0xc
    4718:	19078513          	addi	a0,a5,400 # c190 <excnames.1746+0xb8>
    471c:	b0cfc0ef          	jal	a28 <__panic>
    4720:	0000c7b7          	lui	a5,0xc
    4724:	41078513          	addi	a0,a5,1040 # c410 <excnames.1746+0x338>
    4728:	8b4fc0ef          	jal	7dc <cprintf>
    472c:	00000013          	nop
    4730:	02c12083          	lw	ra,44(sp)
    4734:	02812403          	lw	s0,40(sp)
    4738:	03010113          	addi	sp,sp,48
    473c:	00008067          	ret

00004740 <do_pgfault>:
    4740:	fb010113          	addi	sp,sp,-80
    4744:	04112623          	sw	ra,76(sp)
    4748:	04812423          	sw	s0,72(sp)
    474c:	05010413          	addi	s0,sp,80
    4750:	faa42e23          	sw	a0,-68(s0)
    4754:	fab42c23          	sw	a1,-72(s0)
    4758:	fac42a23          	sw	a2,-76(s0)
    475c:	fad42823          	sw	a3,-80(s0)
    4760:	ffd00793          	li	a5,-3
    4764:	fef42623          	sw	a5,-20(s0)
    4768:	fb442583          	lw	a1,-76(s0)
    476c:	fbc42503          	lw	a0,-68(s0)
    4770:	b1cff0ef          	jal	3a8c <find_vma>
    4774:	fea42223          	sw	a0,-28(s0)
    4778:	0000e7b7          	lui	a5,0xe
    477c:	5e47a783          	lw	a5,1508(a5) # e5e4 <__sbss_start>
    4780:	00178713          	addi	a4,a5,1
    4784:	0000e7b7          	lui	a5,0xe
    4788:	5ee7a223          	sw	a4,1508(a5) # e5e4 <__sbss_start>
    478c:	fe442783          	lw	a5,-28(s0)
    4790:	00078a63          	beqz	a5,47a4 <do_pgfault+0x64>
    4794:	fe442783          	lw	a5,-28(s0)
    4798:	0047a703          	lw	a4,4(a5)
    479c:	fb442783          	lw	a5,-76(s0)
    47a0:	00e7fc63          	bleu	a4,a5,47b8 <do_pgfault+0x78>
    47a4:	fb442583          	lw	a1,-76(s0)
    47a8:	0000c7b7          	lui	a5,0xc
    47ac:	42c78513          	addi	a0,a5,1068 # c42c <excnames.1746+0x354>
    47b0:	82cfc0ef          	jal	7dc <cprintf>
    47b4:	1900006f          	j	4944 <do_pgfault+0x204>
    47b8:	fb842783          	lw	a5,-72(s0)
    47bc:	00100713          	li	a4,1
    47c0:	02e78663          	beq	a5,a4,47ec <do_pgfault+0xac>
    47c4:	00500713          	li	a4,5
    47c8:	02e78a63          	beq	a5,a4,47fc <do_pgfault+0xbc>
    47cc:	fe442783          	lw	a5,-28(s0)
    47d0:	00c7a783          	lw	a5,12(a5)
    47d4:	0027f793          	andi	a5,a5,2
    47d8:	04079263          	bnez	a5,481c <do_pgfault+0xdc>
    47dc:	0000c7b7          	lui	a5,0xc
    47e0:	45c78513          	addi	a0,a5,1116 # c45c <excnames.1746+0x384>
    47e4:	ff9fb0ef          	jal	7dc <cprintf>
    47e8:	15c0006f          	j	4944 <do_pgfault+0x204>
    47ec:	0000c7b7          	lui	a5,0xc
    47f0:	4bc78513          	addi	a0,a5,1212 # c4bc <excnames.1746+0x3e4>
    47f4:	fe9fb0ef          	jal	7dc <cprintf>
    47f8:	14c0006f          	j	4944 <do_pgfault+0x204>
    47fc:	fe442783          	lw	a5,-28(s0)
    4800:	00c7a783          	lw	a5,12(a5)
    4804:	0057f793          	andi	a5,a5,5
    4808:	00079c63          	bnez	a5,4820 <do_pgfault+0xe0>
    480c:	0000c7b7          	lui	a5,0xc
    4810:	4f478513          	addi	a0,a5,1268 # c4f4 <excnames.1746+0x41c>
    4814:	fc9fb0ef          	jal	7dc <cprintf>
    4818:	12c0006f          	j	4944 <do_pgfault+0x204>
    481c:	00000013          	nop
    4820:	fb040793          	addi	a5,s0,-80
    4824:	fcf42a23          	sw	a5,-44(s0)
    4828:	03000793          	li	a5,48
    482c:	fcf42823          	sw	a5,-48(s0)
    4830:	fd042783          	lw	a5,-48(s0)
    4834:	fcf42623          	sw	a5,-52(s0)
    4838:	fc042423          	sw	zero,-56(s0)
    483c:	01c0006f          	j	4858 <do_pgfault+0x118>
    4840:	fcc42783          	lw	a5,-52(s0)
    4844:	0017d793          	srli	a5,a5,0x1
    4848:	fcf42623          	sw	a5,-52(s0)
    484c:	fc842783          	lw	a5,-56(s0)
    4850:	00178793          	addi	a5,a5,1
    4854:	fcf42423          	sw	a5,-56(s0)
    4858:	fcc42783          	lw	a5,-52(s0)
    485c:	0017f793          	andi	a5,a5,1
    4860:	fe0780e3          	beqz	a5,4840 <do_pgfault+0x100>
    4864:	fd442783          	lw	a5,-44(s0)
    4868:	0007a703          	lw	a4,0(a5)
    486c:	fd042783          	lw	a5,-48(s0)
    4870:	00f77733          	and	a4,a4,a5
    4874:	fc842783          	lw	a5,-56(s0)
    4878:	00f757b3          	srl	a5,a4,a5
    487c:	fef42023          	sw	a5,-32(s0)
    4880:	fe042423          	sw	zero,-24(s0)
    4884:	fe442783          	lw	a5,-28(s0)
    4888:	00c7a783          	lw	a5,12(a5)
    488c:	0027f793          	andi	a5,a5,2
    4890:	00078863          	beqz	a5,48a0 <do_pgfault+0x160>
    4894:	fe842783          	lw	a5,-24(s0)
    4898:	0337e793          	ori	a5,a5,51
    489c:	fef42423          	sw	a5,-24(s0)
    48a0:	fb442783          	lw	a5,-76(s0)
    48a4:	fcf42e23          	sw	a5,-36(s0)
    48a8:	fdc42703          	lw	a4,-36(s0)
    48ac:	fffff7b7          	lui	a5,0xfffff
    48b0:	00f777b3          	and	a5,a4,a5
    48b4:	faf42a23          	sw	a5,-76(s0)
    48b8:	ffc00793          	li	a5,-4
    48bc:	fef42623          	sw	a5,-20(s0)
    48c0:	fc042c23          	sw	zero,-40(s0)
    48c4:	fbc42783          	lw	a5,-68(s0)
    48c8:	00c7a783          	lw	a5,12(a5) # fffff00c <realend+0xfff8f00c>
    48cc:	00100613          	li	a2,1
    48d0:	fb442583          	lw	a1,-76(s0)
    48d4:	00078513          	mv	a0,a5
    48d8:	1a1030ef          	jal	8278 <get_pte>
    48dc:	fca42c23          	sw	a0,-40(s0)
    48e0:	fd842783          	lw	a5,-40(s0)
    48e4:	00079a63          	bnez	a5,48f8 <do_pgfault+0x1b8>
    48e8:	0000c7b7          	lui	a5,0xc
    48ec:	55878513          	addi	a0,a5,1368 # c558 <excnames.1746+0x480>
    48f0:	eedfb0ef          	jal	7dc <cprintf>
    48f4:	0500006f          	j	4944 <do_pgfault+0x204>
    48f8:	fd842783          	lw	a5,-40(s0)
    48fc:	0007a783          	lw	a5,0(a5)
    4900:	02079a63          	bnez	a5,4934 <do_pgfault+0x1f4>
    4904:	fbc42783          	lw	a5,-68(s0)
    4908:	00c7a783          	lw	a5,12(a5)
    490c:	fe842603          	lw	a2,-24(s0)
    4910:	fb442583          	lw	a1,-76(s0)
    4914:	00078513          	mv	a0,a5
    4918:	56d030ef          	jal	8684 <pgdir_alloc_page>
    491c:	00050793          	mv	a5,a0
    4920:	00079a63          	bnez	a5,4934 <do_pgfault+0x1f4>
    4924:	0000c7b7          	lui	a5,0xc
    4928:	57878513          	addi	a0,a5,1400 # c578 <excnames.1746+0x4a0>
    492c:	eb1fb0ef          	jal	7dc <cprintf>
    4930:	0140006f          	j	4944 <do_pgfault+0x204>
    4934:	0000c7b7          	lui	a5,0xc
    4938:	5a078513          	addi	a0,a5,1440 # c5a0 <excnames.1746+0x4c8>
    493c:	ea1fb0ef          	jal	7dc <cprintf>
    4940:	fe042623          	sw	zero,-20(s0)
    4944:	fec42783          	lw	a5,-20(s0)
    4948:	00078513          	mv	a0,a5
    494c:	04c12083          	lw	ra,76(sp)
    4950:	04812403          	lw	s0,72(sp)
    4954:	05010113          	addi	sp,sp,80
    4958:	00008067          	ret

0000495c <pa2page>:
    495c:	fe010113          	addi	sp,sp,-32
    4960:	00112e23          	sw	ra,28(sp)
    4964:	00812c23          	sw	s0,24(sp)
    4968:	02010413          	addi	s0,sp,32
    496c:	fea42623          	sw	a0,-20(s0)
    4970:	fec42783          	lw	a5,-20(s0)
    4974:	00c7d713          	srli	a4,a5,0xc
    4978:	0000e7b7          	lui	a5,0xe
    497c:	5f07a783          	lw	a5,1520(a5) # e5f0 <npage>
    4980:	00f76e63          	bltu	a4,a5,499c <pa2page+0x40>
    4984:	0000c7b7          	lui	a5,0xc
    4988:	5b478613          	addi	a2,a5,1460 # c5b4 <excnames.1746+0x4dc>
    498c:	05800593          	li	a1,88
    4990:	0000c7b7          	lui	a5,0xc
    4994:	5d478513          	addi	a0,a5,1492 # c5d4 <excnames.1746+0x4fc>
    4998:	890fc0ef          	jal	a28 <__panic>
    499c:	0000f7b7          	lui	a5,0xf
    49a0:	6bc7a703          	lw	a4,1724(a5) # f6bc <pages>
    49a4:	fec42783          	lw	a5,-20(s0)
    49a8:	00c7d793          	srli	a5,a5,0xc
    49ac:	00579793          	slli	a5,a5,0x5
    49b0:	00f707b3          	add	a5,a4,a5
    49b4:	00078513          	mv	a0,a5
    49b8:	01c12083          	lw	ra,28(sp)
    49bc:	01812403          	lw	s0,24(sp)
    49c0:	02010113          	addi	sp,sp,32
    49c4:	00008067          	ret

000049c8 <pte2page>:
    49c8:	fe010113          	addi	sp,sp,-32
    49cc:	00112e23          	sw	ra,28(sp)
    49d0:	00812c23          	sw	s0,24(sp)
    49d4:	02010413          	addi	s0,sp,32
    49d8:	fea42623          	sw	a0,-20(s0)
    49dc:	fec42783          	lw	a5,-20(s0)
    49e0:	0017f793          	andi	a5,a5,1
    49e4:	00079e63          	bnez	a5,4a00 <pte2page+0x38>
    49e8:	0000c7b7          	lui	a5,0xc
    49ec:	5e478613          	addi	a2,a5,1508 # c5e4 <excnames.1746+0x50c>
    49f0:	06a00593          	li	a1,106
    49f4:	0000c7b7          	lui	a5,0xc
    49f8:	5d478513          	addi	a0,a5,1492 # c5d4 <excnames.1746+0x4fc>
    49fc:	82cfc0ef          	jal	a28 <__panic>
    4a00:	fec42703          	lw	a4,-20(s0)
    4a04:	fffff7b7          	lui	a5,0xfffff
    4a08:	00f777b3          	and	a5,a4,a5
    4a0c:	00078513          	mv	a0,a5
    4a10:	f4dff0ef          	jal	495c <pa2page>
    4a14:	00050793          	mv	a5,a0
    4a18:	00078513          	mv	a0,a5
    4a1c:	01c12083          	lw	ra,28(sp)
    4a20:	01812403          	lw	s0,24(sp)
    4a24:	02010113          	addi	sp,sp,32
    4a28:	00008067          	ret

00004a2c <swap_init>:
    4a2c:	fe010113          	addi	sp,sp,-32
    4a30:	00112e23          	sw	ra,28(sp)
    4a34:	00812c23          	sw	s0,24(sp)
    4a38:	02010413          	addi	s0,sp,32
    4a3c:	349040ef          	jal	9584 <swapfs_init>
    4a40:	0000f7b7          	lui	a5,0xf
    4a44:	6787a703          	lw	a4,1656(a5) # f678 <max_swap_offset>
    4a48:	3ff00793          	li	a5,1023
    4a4c:	00e7fa63          	bleu	a4,a5,4a60 <swap_init+0x34>
    4a50:	0000f7b7          	lui	a5,0xf
    4a54:	6787a703          	lw	a4,1656(a5) # f678 <max_swap_offset>
    4a58:	010007b7          	lui	a5,0x1000
    4a5c:	02f76463          	bltu	a4,a5,4a84 <swap_init+0x58>
    4a60:	0000f7b7          	lui	a5,0xf
    4a64:	6787a783          	lw	a5,1656(a5) # f678 <max_swap_offset>
    4a68:	00078693          	mv	a3,a5
    4a6c:	0000c7b7          	lui	a5,0xc
    4a70:	60878613          	addi	a2,a5,1544 # c608 <excnames.1746+0x530>
    4a74:	02500593          	li	a1,37
    4a78:	0000c7b7          	lui	a5,0xc
    4a7c:	62478513          	addi	a0,a5,1572 # c624 <excnames.1746+0x54c>
    4a80:	fa9fb0ef          	jal	a28 <__panic>
    4a84:	0000e737          	lui	a4,0xe
    4a88:	59470713          	addi	a4,a4,1428 # e594 <swap_manager_fifo>
    4a8c:	72e1a823          	sw	a4,1840(gp) # f528 <sm>
    4a90:	7301a783          	lw	a5,1840(gp) # f528 <sm>
    4a94:	0047a783          	lw	a5,4(a5)
    4a98:	000780e7          	jalr	a5
    4a9c:	fea42623          	sw	a0,-20(s0)
    4aa0:	fec42783          	lw	a5,-20(s0)
    4aa4:	02079663          	bnez	a5,4ad0 <swap_init+0xa4>
    4aa8:	0000e7b7          	lui	a5,0xe
    4aac:	00100713          	li	a4,1
    4ab0:	5ee7a423          	sw	a4,1512(a5) # e5e8 <swap_init_ok>
    4ab4:	7301a783          	lw	a5,1840(gp) # f528 <sm>
    4ab8:	0007a783          	lw	a5,0(a5)
    4abc:	00078593          	mv	a1,a5
    4ac0:	0000c7b7          	lui	a5,0xc
    4ac4:	63478513          	addi	a0,a5,1588 # c634 <excnames.1746+0x55c>
    4ac8:	d15fb0ef          	jal	7dc <cprintf>
    4acc:	61c000ef          	jal	50e8 <check_swap>
    4ad0:	fec42783          	lw	a5,-20(s0)
    4ad4:	00078513          	mv	a0,a5
    4ad8:	01c12083          	lw	ra,28(sp)
    4adc:	01812403          	lw	s0,24(sp)
    4ae0:	02010113          	addi	sp,sp,32
    4ae4:	00008067          	ret

00004ae8 <swap_init_mm>:
    4ae8:	fe010113          	addi	sp,sp,-32
    4aec:	00112e23          	sw	ra,28(sp)
    4af0:	00812c23          	sw	s0,24(sp)
    4af4:	02010413          	addi	s0,sp,32
    4af8:	fea42623          	sw	a0,-20(s0)
    4afc:	7301a783          	lw	a5,1840(gp) # f528 <sm>
    4b00:	0087a783          	lw	a5,8(a5)
    4b04:	fec42503          	lw	a0,-20(s0)
    4b08:	000780e7          	jalr	a5
    4b0c:	00050793          	mv	a5,a0
    4b10:	00078513          	mv	a0,a5
    4b14:	01c12083          	lw	ra,28(sp)
    4b18:	01812403          	lw	s0,24(sp)
    4b1c:	02010113          	addi	sp,sp,32
    4b20:	00008067          	ret

00004b24 <swap_tick_event>:
    4b24:	fe010113          	addi	sp,sp,-32
    4b28:	00112e23          	sw	ra,28(sp)
    4b2c:	00812c23          	sw	s0,24(sp)
    4b30:	02010413          	addi	s0,sp,32
    4b34:	fea42623          	sw	a0,-20(s0)
    4b38:	7301a783          	lw	a5,1840(gp) # f528 <sm>
    4b3c:	00c7a783          	lw	a5,12(a5)
    4b40:	fec42503          	lw	a0,-20(s0)
    4b44:	000780e7          	jalr	a5
    4b48:	00050793          	mv	a5,a0
    4b4c:	00078513          	mv	a0,a5
    4b50:	01c12083          	lw	ra,28(sp)
    4b54:	01812403          	lw	s0,24(sp)
    4b58:	02010113          	addi	sp,sp,32
    4b5c:	00008067          	ret

00004b60 <swap_map_swappable>:
    4b60:	fe010113          	addi	sp,sp,-32
    4b64:	00112e23          	sw	ra,28(sp)
    4b68:	00812c23          	sw	s0,24(sp)
    4b6c:	02010413          	addi	s0,sp,32
    4b70:	fea42623          	sw	a0,-20(s0)
    4b74:	feb42423          	sw	a1,-24(s0)
    4b78:	fec42223          	sw	a2,-28(s0)
    4b7c:	fed42023          	sw	a3,-32(s0)
    4b80:	7301a783          	lw	a5,1840(gp) # f528 <sm>
    4b84:	0107a783          	lw	a5,16(a5)
    4b88:	fe042683          	lw	a3,-32(s0)
    4b8c:	fe442603          	lw	a2,-28(s0)
    4b90:	fe842583          	lw	a1,-24(s0)
    4b94:	fec42503          	lw	a0,-20(s0)
    4b98:	000780e7          	jalr	a5
    4b9c:	00050793          	mv	a5,a0
    4ba0:	00078513          	mv	a0,a5
    4ba4:	01c12083          	lw	ra,28(sp)
    4ba8:	01812403          	lw	s0,24(sp)
    4bac:	02010113          	addi	sp,sp,32
    4bb0:	00008067          	ret

00004bb4 <swap_set_unswappable>:
    4bb4:	fe010113          	addi	sp,sp,-32
    4bb8:	00112e23          	sw	ra,28(sp)
    4bbc:	00812c23          	sw	s0,24(sp)
    4bc0:	02010413          	addi	s0,sp,32
    4bc4:	fea42623          	sw	a0,-20(s0)
    4bc8:	feb42423          	sw	a1,-24(s0)
    4bcc:	7301a783          	lw	a5,1840(gp) # f528 <sm>
    4bd0:	0147a783          	lw	a5,20(a5)
    4bd4:	fe842583          	lw	a1,-24(s0)
    4bd8:	fec42503          	lw	a0,-20(s0)
    4bdc:	000780e7          	jalr	a5
    4be0:	00050793          	mv	a5,a0
    4be4:	00078513          	mv	a0,a5
    4be8:	01c12083          	lw	ra,28(sp)
    4bec:	01812403          	lw	s0,24(sp)
    4bf0:	02010113          	addi	sp,sp,32
    4bf4:	00008067          	ret

00004bf8 <swap_out>:
    4bf8:	fc010113          	addi	sp,sp,-64
    4bfc:	02112e23          	sw	ra,60(sp)
    4c00:	02812c23          	sw	s0,56(sp)
    4c04:	04010413          	addi	s0,sp,64
    4c08:	fca42623          	sw	a0,-52(s0)
    4c0c:	fcb42423          	sw	a1,-56(s0)
    4c10:	fcc42223          	sw	a2,-60(s0)
    4c14:	fe042623          	sw	zero,-20(s0)
    4c18:	1680006f          	j	4d80 <swap_out+0x188>
    4c1c:	7301a783          	lw	a5,1840(gp) # f528 <sm>
    4c20:	0187a703          	lw	a4,24(a5)
    4c24:	fdc40793          	addi	a5,s0,-36
    4c28:	fc442603          	lw	a2,-60(s0)
    4c2c:	00078593          	mv	a1,a5
    4c30:	fcc42503          	lw	a0,-52(s0)
    4c34:	000700e7          	jalr	a4
    4c38:	fea42423          	sw	a0,-24(s0)
    4c3c:	fe842783          	lw	a5,-24(s0)
    4c40:	00078c63          	beqz	a5,4c58 <swap_out+0x60>
    4c44:	fec42583          	lw	a1,-20(s0)
    4c48:	0000c7b7          	lui	a5,0xc
    4c4c:	64878513          	addi	a0,a5,1608 # c648 <excnames.1746+0x570>
    4c50:	b8dfb0ef          	jal	7dc <cprintf>
    4c54:	1380006f          	j	4d8c <swap_out+0x194>
    4c58:	fdc42783          	lw	a5,-36(s0)
    4c5c:	01c7a783          	lw	a5,28(a5)
    4c60:	fef42223          	sw	a5,-28(s0)
    4c64:	fcc42783          	lw	a5,-52(s0)
    4c68:	00c7a783          	lw	a5,12(a5)
    4c6c:	00000613          	li	a2,0
    4c70:	fe442583          	lw	a1,-28(s0)
    4c74:	00078513          	mv	a0,a5
    4c78:	600030ef          	jal	8278 <get_pte>
    4c7c:	fea42023          	sw	a0,-32(s0)
    4c80:	fe042783          	lw	a5,-32(s0)
    4c84:	0007a783          	lw	a5,0(a5)
    4c88:	0017f793          	andi	a5,a5,1
    4c8c:	02079263          	bnez	a5,4cb0 <swap_out+0xb8>
    4c90:	0000c7b7          	lui	a5,0xc
    4c94:	67878693          	addi	a3,a5,1656 # c678 <excnames.1746+0x5a0>
    4c98:	0000c7b7          	lui	a5,0xc
    4c9c:	69078613          	addi	a2,a5,1680 # c690 <excnames.1746+0x5b8>
    4ca0:	06500593          	li	a1,101
    4ca4:	0000c7b7          	lui	a5,0xc
    4ca8:	62478513          	addi	a0,a5,1572 # c624 <excnames.1746+0x54c>
    4cac:	d7dfb0ef          	jal	a28 <__panic>
    4cb0:	fdc42783          	lw	a5,-36(s0)
    4cb4:	01c7a783          	lw	a5,28(a5)
    4cb8:	00c7d793          	srli	a5,a5,0xc
    4cbc:	00178793          	addi	a5,a5,1
    4cc0:	00879793          	slli	a5,a5,0x8
    4cc4:	fdc42703          	lw	a4,-36(s0)
    4cc8:	00070593          	mv	a1,a4
    4ccc:	00078513          	mv	a0,a5
    4cd0:	1b9040ef          	jal	9688 <swapfs_write>
    4cd4:	00050793          	mv	a5,a0
    4cd8:	02078a63          	beqz	a5,4d0c <swap_out+0x114>
    4cdc:	0000c7b7          	lui	a5,0xc
    4ce0:	6a878513          	addi	a0,a5,1704 # c6a8 <excnames.1746+0x5d0>
    4ce4:	af9fb0ef          	jal	7dc <cprintf>
    4ce8:	7301a783          	lw	a5,1840(gp) # f528 <sm>
    4cec:	0107a703          	lw	a4,16(a5)
    4cf0:	fdc42783          	lw	a5,-36(s0)
    4cf4:	00000693          	li	a3,0
    4cf8:	00078613          	mv	a2,a5
    4cfc:	fe442583          	lw	a1,-28(s0)
    4d00:	fcc42503          	lw	a0,-52(s0)
    4d04:	000700e7          	jalr	a4
    4d08:	06c0006f          	j	4d74 <swap_out+0x17c>
    4d0c:	fdc42783          	lw	a5,-36(s0)
    4d10:	01c7a783          	lw	a5,28(a5)
    4d14:	00c7d793          	srli	a5,a5,0xc
    4d18:	00178793          	addi	a5,a5,1
    4d1c:	00078693          	mv	a3,a5
    4d20:	fe442603          	lw	a2,-28(s0)
    4d24:	fec42583          	lw	a1,-20(s0)
    4d28:	0000c7b7          	lui	a5,0xc
    4d2c:	6c078513          	addi	a0,a5,1728 # c6c0 <excnames.1746+0x5e8>
    4d30:	aadfb0ef          	jal	7dc <cprintf>
    4d34:	fdc42783          	lw	a5,-36(s0)
    4d38:	01c7a783          	lw	a5,28(a5)
    4d3c:	00c7d793          	srli	a5,a5,0xc
    4d40:	00178793          	addi	a5,a5,1
    4d44:	00879713          	slli	a4,a5,0x8
    4d48:	fe042783          	lw	a5,-32(s0)
    4d4c:	00e7a023          	sw	a4,0(a5)
    4d50:	fdc42783          	lw	a5,-36(s0)
    4d54:	00100593          	li	a1,1
    4d58:	00078513          	mv	a0,a5
    4d5c:	389020ef          	jal	78e4 <free_pages>
    4d60:	fcc42783          	lw	a5,-52(s0)
    4d64:	00c7a783          	lw	a5,12(a5)
    4d68:	fe442583          	lw	a1,-28(s0)
    4d6c:	00078513          	mv	a0,a5
    4d70:	0d5030ef          	jal	8644 <tlb_invalidate>
    4d74:	fec42783          	lw	a5,-20(s0)
    4d78:	00178793          	addi	a5,a5,1
    4d7c:	fef42623          	sw	a5,-20(s0)
    4d80:	fec42703          	lw	a4,-20(s0)
    4d84:	fc842783          	lw	a5,-56(s0)
    4d88:	e8f71ae3          	bne	a4,a5,4c1c <swap_out+0x24>
    4d8c:	fec42783          	lw	a5,-20(s0)
    4d90:	00078513          	mv	a0,a5
    4d94:	03c12083          	lw	ra,60(sp)
    4d98:	03812403          	lw	s0,56(sp)
    4d9c:	04010113          	addi	sp,sp,64
    4da0:	00008067          	ret

00004da4 <swap_in>:
    4da4:	fd010113          	addi	sp,sp,-48
    4da8:	02112623          	sw	ra,44(sp)
    4dac:	02812423          	sw	s0,40(sp)
    4db0:	03010413          	addi	s0,sp,48
    4db4:	fca42e23          	sw	a0,-36(s0)
    4db8:	fcb42c23          	sw	a1,-40(s0)
    4dbc:	fcc42a23          	sw	a2,-44(s0)
    4dc0:	00100513          	li	a0,1
    4dc4:	2a5020ef          	jal	7868 <alloc_pages>
    4dc8:	fea42623          	sw	a0,-20(s0)
    4dcc:	fec42783          	lw	a5,-20(s0)
    4dd0:	02079263          	bnez	a5,4df4 <swap_in+0x50>
    4dd4:	0000c7b7          	lui	a5,0xc
    4dd8:	70078693          	addi	a3,a5,1792 # c700 <excnames.1746+0x628>
    4ddc:	0000c7b7          	lui	a5,0xc
    4de0:	69078613          	addi	a2,a5,1680 # c690 <excnames.1746+0x5b8>
    4de4:	07b00593          	li	a1,123
    4de8:	0000c7b7          	lui	a5,0xc
    4dec:	62478513          	addi	a0,a5,1572 # c624 <excnames.1746+0x54c>
    4df0:	c39fb0ef          	jal	a28 <__panic>
    4df4:	fdc42783          	lw	a5,-36(s0)
    4df8:	00c7a783          	lw	a5,12(a5)
    4dfc:	00000613          	li	a2,0
    4e00:	fd842583          	lw	a1,-40(s0)
    4e04:	00078513          	mv	a0,a5
    4e08:	470030ef          	jal	8278 <get_pte>
    4e0c:	fea42423          	sw	a0,-24(s0)
    4e10:	fe842783          	lw	a5,-24(s0)
    4e14:	0007a783          	lw	a5,0(a5)
    4e18:	fec42583          	lw	a1,-20(s0)
    4e1c:	00078513          	mv	a0,a5
    4e20:	7c8040ef          	jal	95e8 <swapfs_read>
    4e24:	fea42223          	sw	a0,-28(s0)
    4e28:	fe442783          	lw	a5,-28(s0)
    4e2c:	02078663          	beqz	a5,4e58 <swap_in+0xb4>
    4e30:	fe442783          	lw	a5,-28(s0)
    4e34:	02079263          	bnez	a5,4e58 <swap_in+0xb4>
    4e38:	0000c7b7          	lui	a5,0xc
    4e3c:	71078693          	addi	a3,a5,1808 # c710 <excnames.1746+0x638>
    4e40:	0000c7b7          	lui	a5,0xc
    4e44:	69078613          	addi	a2,a5,1680 # c690 <excnames.1746+0x5b8>
    4e48:	08300593          	li	a1,131
    4e4c:	0000c7b7          	lui	a5,0xc
    4e50:	62478513          	addi	a0,a5,1572 # c624 <excnames.1746+0x54c>
    4e54:	bd5fb0ef          	jal	a28 <__panic>
    4e58:	fe842783          	lw	a5,-24(s0)
    4e5c:	0007a783          	lw	a5,0(a5)
    4e60:	0087d793          	srli	a5,a5,0x8
    4e64:	fd842603          	lw	a2,-40(s0)
    4e68:	00078593          	mv	a1,a5
    4e6c:	0000c7b7          	lui	a5,0xc
    4e70:	71878513          	addi	a0,a5,1816 # c718 <excnames.1746+0x640>
    4e74:	969fb0ef          	jal	7dc <cprintf>
    4e78:	fd442783          	lw	a5,-44(s0)
    4e7c:	fec42703          	lw	a4,-20(s0)
    4e80:	00e7a023          	sw	a4,0(a5)
    4e84:	00000793          	li	a5,0
    4e88:	00078513          	mv	a0,a5
    4e8c:	02c12083          	lw	ra,44(sp)
    4e90:	02812403          	lw	s0,40(sp)
    4e94:	03010113          	addi	sp,sp,48
    4e98:	00008067          	ret

00004e9c <check_content_set>:
    4e9c:	ff010113          	addi	sp,sp,-16
    4ea0:	00112623          	sw	ra,12(sp)
    4ea4:	00812423          	sw	s0,8(sp)
    4ea8:	01010413          	addi	s0,sp,16
    4eac:	000017b7          	lui	a5,0x1
    4eb0:	00a00713          	li	a4,10
    4eb4:	00e78023          	sb	a4,0(a5) # 1000 <debuginfo_eip+0x298>
    4eb8:	0000e7b7          	lui	a5,0xe
    4ebc:	5e47a703          	lw	a4,1508(a5) # e5e4 <__sbss_start>
    4ec0:	00100793          	li	a5,1
    4ec4:	02f70263          	beq	a4,a5,4ee8 <check_content_set+0x4c>
    4ec8:	0000c7b7          	lui	a5,0xc
    4ecc:	75878693          	addi	a3,a5,1880 # c758 <excnames.1746+0x680>
    4ed0:	0000c7b7          	lui	a5,0xc
    4ed4:	69078613          	addi	a2,a5,1680 # c690 <excnames.1746+0x5b8>
    4ed8:	09000593          	li	a1,144
    4edc:	0000c7b7          	lui	a5,0xc
    4ee0:	62478513          	addi	a0,a5,1572 # c624 <excnames.1746+0x54c>
    4ee4:	b45fb0ef          	jal	a28 <__panic>
    4ee8:	000017b7          	lui	a5,0x1
    4eec:	01078793          	addi	a5,a5,16 # 1010 <debuginfo_eip+0x2a8>
    4ef0:	00a00713          	li	a4,10
    4ef4:	00e78023          	sb	a4,0(a5)
    4ef8:	0000e7b7          	lui	a5,0xe
    4efc:	5e47a703          	lw	a4,1508(a5) # e5e4 <__sbss_start>
    4f00:	00100793          	li	a5,1
    4f04:	02f70263          	beq	a4,a5,4f28 <check_content_set+0x8c>
    4f08:	0000c7b7          	lui	a5,0xc
    4f0c:	75878693          	addi	a3,a5,1880 # c758 <excnames.1746+0x680>
    4f10:	0000c7b7          	lui	a5,0xc
    4f14:	69078613          	addi	a2,a5,1680 # c690 <excnames.1746+0x5b8>
    4f18:	09200593          	li	a1,146
    4f1c:	0000c7b7          	lui	a5,0xc
    4f20:	62478513          	addi	a0,a5,1572 # c624 <excnames.1746+0x54c>
    4f24:	b05fb0ef          	jal	a28 <__panic>
    4f28:	000027b7          	lui	a5,0x2
    4f2c:	00b00713          	li	a4,11
    4f30:	00e78023          	sb	a4,0(a5) # 2000 <ide_write_secs+0x194>
    4f34:	0000e7b7          	lui	a5,0xe
    4f38:	5e47a703          	lw	a4,1508(a5) # e5e4 <__sbss_start>
    4f3c:	00200793          	li	a5,2
    4f40:	02f70263          	beq	a4,a5,4f64 <check_content_set+0xc8>
    4f44:	0000c7b7          	lui	a5,0xc
    4f48:	76878693          	addi	a3,a5,1896 # c768 <excnames.1746+0x690>
    4f4c:	0000c7b7          	lui	a5,0xc
    4f50:	69078613          	addi	a2,a5,1680 # c690 <excnames.1746+0x5b8>
    4f54:	09400593          	li	a1,148
    4f58:	0000c7b7          	lui	a5,0xc
    4f5c:	62478513          	addi	a0,a5,1572 # c624 <excnames.1746+0x54c>
    4f60:	ac9fb0ef          	jal	a28 <__panic>
    4f64:	000027b7          	lui	a5,0x2
    4f68:	01078793          	addi	a5,a5,16 # 2010 <ide_write_secs+0x1a4>
    4f6c:	00b00713          	li	a4,11
    4f70:	00e78023          	sb	a4,0(a5)
    4f74:	0000e7b7          	lui	a5,0xe
    4f78:	5e47a703          	lw	a4,1508(a5) # e5e4 <__sbss_start>
    4f7c:	00200793          	li	a5,2
    4f80:	02f70263          	beq	a4,a5,4fa4 <check_content_set+0x108>
    4f84:	0000c7b7          	lui	a5,0xc
    4f88:	76878693          	addi	a3,a5,1896 # c768 <excnames.1746+0x690>
    4f8c:	0000c7b7          	lui	a5,0xc
    4f90:	69078613          	addi	a2,a5,1680 # c690 <excnames.1746+0x5b8>
    4f94:	09600593          	li	a1,150
    4f98:	0000c7b7          	lui	a5,0xc
    4f9c:	62478513          	addi	a0,a5,1572 # c624 <excnames.1746+0x54c>
    4fa0:	a89fb0ef          	jal	a28 <__panic>
    4fa4:	000037b7          	lui	a5,0x3
    4fa8:	00c00713          	li	a4,12
    4fac:	00e78023          	sb	a4,0(a5) # 3000 <trap_in_kernel+0x34>
    4fb0:	0000e7b7          	lui	a5,0xe
    4fb4:	5e47a703          	lw	a4,1508(a5) # e5e4 <__sbss_start>
    4fb8:	00300793          	li	a5,3
    4fbc:	02f70263          	beq	a4,a5,4fe0 <check_content_set+0x144>
    4fc0:	0000c7b7          	lui	a5,0xc
    4fc4:	77878693          	addi	a3,a5,1912 # c778 <excnames.1746+0x6a0>
    4fc8:	0000c7b7          	lui	a5,0xc
    4fcc:	69078613          	addi	a2,a5,1680 # c690 <excnames.1746+0x5b8>
    4fd0:	09800593          	li	a1,152
    4fd4:	0000c7b7          	lui	a5,0xc
    4fd8:	62478513          	addi	a0,a5,1572 # c624 <excnames.1746+0x54c>
    4fdc:	a4dfb0ef          	jal	a28 <__panic>
    4fe0:	000037b7          	lui	a5,0x3
    4fe4:	01078793          	addi	a5,a5,16 # 3010 <trap_in_kernel+0x44>
    4fe8:	00c00713          	li	a4,12
    4fec:	00e78023          	sb	a4,0(a5)
    4ff0:	0000e7b7          	lui	a5,0xe
    4ff4:	5e47a703          	lw	a4,1508(a5) # e5e4 <__sbss_start>
    4ff8:	00300793          	li	a5,3
    4ffc:	02f70263          	beq	a4,a5,5020 <check_content_set+0x184>
    5000:	0000c7b7          	lui	a5,0xc
    5004:	77878693          	addi	a3,a5,1912 # c778 <excnames.1746+0x6a0>
    5008:	0000c7b7          	lui	a5,0xc
    500c:	69078613          	addi	a2,a5,1680 # c690 <excnames.1746+0x5b8>
    5010:	09a00593          	li	a1,154
    5014:	0000c7b7          	lui	a5,0xc
    5018:	62478513          	addi	a0,a5,1572 # c624 <excnames.1746+0x54c>
    501c:	a0dfb0ef          	jal	a28 <__panic>
    5020:	000047b7          	lui	a5,0x4
    5024:	00d00713          	li	a4,13
    5028:	00e78023          	sb	a4,0(a5) # 4000 <check_vma_struct+0xc8>
    502c:	0000e7b7          	lui	a5,0xe
    5030:	5e47a703          	lw	a4,1508(a5) # e5e4 <__sbss_start>
    5034:	00400793          	li	a5,4
    5038:	02f70263          	beq	a4,a5,505c <check_content_set+0x1c0>
    503c:	0000c7b7          	lui	a5,0xc
    5040:	78878693          	addi	a3,a5,1928 # c788 <excnames.1746+0x6b0>
    5044:	0000c7b7          	lui	a5,0xc
    5048:	69078613          	addi	a2,a5,1680 # c690 <excnames.1746+0x5b8>
    504c:	09c00593          	li	a1,156
    5050:	0000c7b7          	lui	a5,0xc
    5054:	62478513          	addi	a0,a5,1572 # c624 <excnames.1746+0x54c>
    5058:	9d1fb0ef          	jal	a28 <__panic>
    505c:	000047b7          	lui	a5,0x4
    5060:	01078793          	addi	a5,a5,16 # 4010 <check_vma_struct+0xd8>
    5064:	00d00713          	li	a4,13
    5068:	00e78023          	sb	a4,0(a5)
    506c:	0000e7b7          	lui	a5,0xe
    5070:	5e47a703          	lw	a4,1508(a5) # e5e4 <__sbss_start>
    5074:	00400793          	li	a5,4
    5078:	02f70263          	beq	a4,a5,509c <check_content_set+0x200>
    507c:	0000c7b7          	lui	a5,0xc
    5080:	78878693          	addi	a3,a5,1928 # c788 <excnames.1746+0x6b0>
    5084:	0000c7b7          	lui	a5,0xc
    5088:	69078613          	addi	a2,a5,1680 # c690 <excnames.1746+0x5b8>
    508c:	09e00593          	li	a1,158
    5090:	0000c7b7          	lui	a5,0xc
    5094:	62478513          	addi	a0,a5,1572 # c624 <excnames.1746+0x54c>
    5098:	991fb0ef          	jal	a28 <__panic>
    509c:	00000013          	nop
    50a0:	00c12083          	lw	ra,12(sp)
    50a4:	00812403          	lw	s0,8(sp)
    50a8:	01010113          	addi	sp,sp,16
    50ac:	00008067          	ret

000050b0 <check_content_access>:
    50b0:	fe010113          	addi	sp,sp,-32
    50b4:	00112e23          	sw	ra,28(sp)
    50b8:	00812c23          	sw	s0,24(sp)
    50bc:	02010413          	addi	s0,sp,32
    50c0:	7301a783          	lw	a5,1840(gp) # f528 <sm>
    50c4:	01c7a783          	lw	a5,28(a5)
    50c8:	000780e7          	jalr	a5
    50cc:	fea42623          	sw	a0,-20(s0)
    50d0:	fec42783          	lw	a5,-20(s0)
    50d4:	00078513          	mv	a0,a5
    50d8:	01c12083          	lw	ra,28(sp)
    50dc:	01812403          	lw	s0,24(sp)
    50e0:	02010113          	addi	sp,sp,32
    50e4:	00008067          	ret

000050e8 <check_swap>:
    50e8:	f9010113          	addi	sp,sp,-112
    50ec:	06112623          	sw	ra,108(sp)
    50f0:	06812423          	sw	s0,104(sp)
    50f4:	07010413          	addi	s0,sp,112
    50f8:	fe042623          	sw	zero,-20(s0)
    50fc:	fe042423          	sw	zero,-24(s0)
    5100:	0000f7b7          	lui	a5,0xf
    5104:	6a878793          	addi	a5,a5,1704 # f6a8 <free_area>
    5108:	fef42023          	sw	a5,-32(s0)
    510c:	07c0006f          	j	5188 <check_swap+0xa0>
    5110:	fe042783          	lw	a5,-32(s0)
    5114:	ff478793          	addi	a5,a5,-12
    5118:	fcf42c23          	sw	a5,-40(s0)
    511c:	fd842783          	lw	a5,-40(s0)
    5120:	00478793          	addi	a5,a5,4
    5124:	00100713          	li	a4,1
    5128:	fae42423          	sw	a4,-88(s0)
    512c:	faf42223          	sw	a5,-92(s0)
    5130:	fa442783          	lw	a5,-92(s0)
    5134:	0007a703          	lw	a4,0(a5)
    5138:	fa842783          	lw	a5,-88(s0)
    513c:	00f757b3          	srl	a5,a4,a5
    5140:	0017f793          	andi	a5,a5,1
    5144:	02079263          	bnez	a5,5168 <check_swap+0x80>
    5148:	0000c7b7          	lui	a5,0xc
    514c:	79878693          	addi	a3,a5,1944 # c798 <excnames.1746+0x6c0>
    5150:	0000c7b7          	lui	a5,0xc
    5154:	69078613          	addi	a2,a5,1680 # c690 <excnames.1746+0x5b8>
    5158:	0b900593          	li	a1,185
    515c:	0000c7b7          	lui	a5,0xc
    5160:	62478513          	addi	a0,a5,1572 # c624 <excnames.1746+0x54c>
    5164:	8c5fb0ef          	jal	a28 <__panic>
    5168:	fec42783          	lw	a5,-20(s0)
    516c:	00178793          	addi	a5,a5,1
    5170:	fef42623          	sw	a5,-20(s0)
    5174:	fd842783          	lw	a5,-40(s0)
    5178:	0087a703          	lw	a4,8(a5)
    517c:	fe842783          	lw	a5,-24(s0)
    5180:	00f707b3          	add	a5,a4,a5
    5184:	fef42423          	sw	a5,-24(s0)
    5188:	fe042783          	lw	a5,-32(s0)
    518c:	fcf42a23          	sw	a5,-44(s0)
    5190:	fd442783          	lw	a5,-44(s0)
    5194:	0047a783          	lw	a5,4(a5)
    5198:	fef42023          	sw	a5,-32(s0)
    519c:	fe042703          	lw	a4,-32(s0)
    51a0:	0000f7b7          	lui	a5,0xf
    51a4:	6a878793          	addi	a5,a5,1704 # f6a8 <free_area>
    51a8:	f6f714e3          	bne	a4,a5,5110 <check_swap+0x28>
    51ac:	78c020ef          	jal	7938 <nr_free_pages>
    51b0:	00050713          	mv	a4,a0
    51b4:	fe842783          	lw	a5,-24(s0)
    51b8:	02f70263          	beq	a4,a5,51dc <check_swap+0xf4>
    51bc:	0000c7b7          	lui	a5,0xc
    51c0:	7a878693          	addi	a3,a5,1960 # c7a8 <excnames.1746+0x6d0>
    51c4:	0000c7b7          	lui	a5,0xc
    51c8:	69078613          	addi	a2,a5,1680 # c690 <excnames.1746+0x5b8>
    51cc:	0bc00593          	li	a1,188
    51d0:	0000c7b7          	lui	a5,0xc
    51d4:	62478513          	addi	a0,a5,1572 # c624 <excnames.1746+0x54c>
    51d8:	851fb0ef          	jal	a28 <__panic>
    51dc:	fe842603          	lw	a2,-24(s0)
    51e0:	fec42583          	lw	a1,-20(s0)
    51e4:	0000c7b7          	lui	a5,0xc
    51e8:	7c478513          	addi	a0,a5,1988 # c7c4 <excnames.1746+0x6ec>
    51ec:	df0fb0ef          	jal	7dc <cprintf>
    51f0:	f98fe0ef          	jal	3988 <mm_create>
    51f4:	fca42823          	sw	a0,-48(s0)
    51f8:	fd042783          	lw	a5,-48(s0)
    51fc:	02079263          	bnez	a5,5220 <check_swap+0x138>
    5200:	0000c7b7          	lui	a5,0xc
    5204:	7ec78693          	addi	a3,a5,2028 # c7ec <excnames.1746+0x714>
    5208:	0000c7b7          	lui	a5,0xc
    520c:	69078613          	addi	a2,a5,1680 # c690 <excnames.1746+0x5b8>
    5210:	0c100593          	li	a1,193
    5214:	0000c7b7          	lui	a5,0xc
    5218:	62478513          	addi	a0,a5,1572 # c624 <excnames.1746+0x54c>
    521c:	80dfb0ef          	jal	a28 <__panic>
    5220:	0000f7b7          	lui	a5,0xf
    5224:	6007a783          	lw	a5,1536(a5) # f600 <check_mm_struct>
    5228:	02078263          	beqz	a5,524c <check_swap+0x164>
    522c:	0000c7b7          	lui	a5,0xc
    5230:	7f878693          	addi	a3,a5,2040 # c7f8 <excnames.1746+0x720>
    5234:	0000c7b7          	lui	a5,0xc
    5238:	69078613          	addi	a2,a5,1680 # c690 <excnames.1746+0x5b8>
    523c:	0c400593          	li	a1,196
    5240:	0000c7b7          	lui	a5,0xc
    5244:	62478513          	addi	a0,a5,1572 # c624 <excnames.1746+0x54c>
    5248:	fe0fb0ef          	jal	a28 <__panic>
    524c:	0000f7b7          	lui	a5,0xf
    5250:	fd042703          	lw	a4,-48(s0)
    5254:	60e7a023          	sw	a4,1536(a5) # f600 <check_mm_struct>
    5258:	0000e7b7          	lui	a5,0xe
    525c:	5f47a703          	lw	a4,1524(a5) # e5f4 <boot_pgdir>
    5260:	fd042783          	lw	a5,-48(s0)
    5264:	00e7a623          	sw	a4,12(a5)
    5268:	fd042783          	lw	a5,-48(s0)
    526c:	00c7a783          	lw	a5,12(a5)
    5270:	fcf42623          	sw	a5,-52(s0)
    5274:	fcc42783          	lw	a5,-52(s0)
    5278:	0007a783          	lw	a5,0(a5)
    527c:	02078263          	beqz	a5,52a0 <check_swap+0x1b8>
    5280:	0000d7b7          	lui	a5,0xd
    5284:	81078693          	addi	a3,a5,-2032 # c810 <excnames.1746+0x738>
    5288:	0000c7b7          	lui	a5,0xc
    528c:	69078613          	addi	a2,a5,1680 # c690 <excnames.1746+0x5b8>
    5290:	0c900593          	li	a1,201
    5294:	0000c7b7          	lui	a5,0xc
    5298:	62478513          	addi	a0,a5,1572 # c624 <excnames.1746+0x54c>
    529c:	f8cfb0ef          	jal	a28 <__panic>
    52a0:	00300613          	li	a2,3
    52a4:	000065b7          	lui	a1,0x6
    52a8:	00001537          	lui	a0,0x1
    52ac:	f74fe0ef          	jal	3a20 <vma_create>
    52b0:	fca42423          	sw	a0,-56(s0)
    52b4:	fc842783          	lw	a5,-56(s0)
    52b8:	02079263          	bnez	a5,52dc <check_swap+0x1f4>
    52bc:	0000d7b7          	lui	a5,0xd
    52c0:	82078693          	addi	a3,a5,-2016 # c820 <excnames.1746+0x748>
    52c4:	0000c7b7          	lui	a5,0xc
    52c8:	69078613          	addi	a2,a5,1680 # c690 <excnames.1746+0x5b8>
    52cc:	0cc00593          	li	a1,204
    52d0:	0000c7b7          	lui	a5,0xc
    52d4:	62478513          	addi	a0,a5,1572 # c624 <excnames.1746+0x54c>
    52d8:	f50fb0ef          	jal	a28 <__panic>
    52dc:	fc842583          	lw	a1,-56(s0)
    52e0:	fd042503          	lw	a0,-48(s0)
    52e4:	969fe0ef          	jal	3c4c <insert_vma_struct>
    52e8:	0000d7b7          	lui	a5,0xd
    52ec:	82c78513          	addi	a0,a5,-2004 # c82c <excnames.1746+0x754>
    52f0:	cecfb0ef          	jal	7dc <cprintf>
    52f4:	fc042223          	sw	zero,-60(s0)
    52f8:	fd042783          	lw	a5,-48(s0)
    52fc:	00c7a783          	lw	a5,12(a5)
    5300:	00100613          	li	a2,1
    5304:	000015b7          	lui	a1,0x1
    5308:	00078513          	mv	a0,a5
    530c:	76d020ef          	jal	8278 <get_pte>
    5310:	fca42223          	sw	a0,-60(s0)
    5314:	fc442783          	lw	a5,-60(s0)
    5318:	02079263          	bnez	a5,533c <check_swap+0x254>
    531c:	0000d7b7          	lui	a5,0xd
    5320:	86078693          	addi	a3,a5,-1952 # c860 <excnames.1746+0x788>
    5324:	0000c7b7          	lui	a5,0xc
    5328:	69078613          	addi	a2,a5,1680 # c690 <excnames.1746+0x5b8>
    532c:	0d400593          	li	a1,212
    5330:	0000c7b7          	lui	a5,0xc
    5334:	62478513          	addi	a0,a5,1572 # c624 <excnames.1746+0x54c>
    5338:	ef0fb0ef          	jal	a28 <__panic>
    533c:	0000d7b7          	lui	a5,0xd
    5340:	87478513          	addi	a0,a5,-1932 # c874 <excnames.1746+0x79c>
    5344:	c98fb0ef          	jal	7dc <cprintf>
    5348:	fe042223          	sw	zero,-28(s0)
    534c:	0d00006f          	j	541c <check_swap+0x334>
    5350:	00100513          	li	a0,1
    5354:	514020ef          	jal	7868 <alloc_pages>
    5358:	00050693          	mv	a3,a0
    535c:	0000f7b7          	lui	a5,0xf
    5360:	fe442703          	lw	a4,-28(s0)
    5364:	00271713          	slli	a4,a4,0x2
    5368:	60478793          	addi	a5,a5,1540 # f604 <check_rp>
    536c:	00f707b3          	add	a5,a4,a5
    5370:	00d7a023          	sw	a3,0(a5)
    5374:	0000f7b7          	lui	a5,0xf
    5378:	fe442703          	lw	a4,-28(s0)
    537c:	00271713          	slli	a4,a4,0x2
    5380:	60478793          	addi	a5,a5,1540 # f604 <check_rp>
    5384:	00f707b3          	add	a5,a4,a5
    5388:	0007a783          	lw	a5,0(a5)
    538c:	02079263          	bnez	a5,53b0 <check_swap+0x2c8>
    5390:	0000d7b7          	lui	a5,0xd
    5394:	89878693          	addi	a3,a5,-1896 # c898 <excnames.1746+0x7c0>
    5398:	0000c7b7          	lui	a5,0xc
    539c:	69078613          	addi	a2,a5,1680 # c690 <excnames.1746+0x5b8>
    53a0:	0d900593          	li	a1,217
    53a4:	0000c7b7          	lui	a5,0xc
    53a8:	62478513          	addi	a0,a5,1572 # c624 <excnames.1746+0x54c>
    53ac:	e7cfb0ef          	jal	a28 <__panic>
    53b0:	0000f7b7          	lui	a5,0xf
    53b4:	fe442703          	lw	a4,-28(s0)
    53b8:	00271713          	slli	a4,a4,0x2
    53bc:	60478793          	addi	a5,a5,1540 # f604 <check_rp>
    53c0:	00f707b3          	add	a5,a4,a5
    53c4:	0007a783          	lw	a5,0(a5)
    53c8:	00478793          	addi	a5,a5,4
    53cc:	00100713          	li	a4,1
    53d0:	fce42e23          	sw	a4,-36(s0)
    53d4:	faf42023          	sw	a5,-96(s0)
    53d8:	fa042783          	lw	a5,-96(s0)
    53dc:	0007a703          	lw	a4,0(a5)
    53e0:	fdc42783          	lw	a5,-36(s0)
    53e4:	00f757b3          	srl	a5,a4,a5
    53e8:	0017f793          	andi	a5,a5,1
    53ec:	02078263          	beqz	a5,5410 <check_swap+0x328>
    53f0:	0000d7b7          	lui	a5,0xd
    53f4:	8ac78693          	addi	a3,a5,-1876 # c8ac <excnames.1746+0x7d4>
    53f8:	0000c7b7          	lui	a5,0xc
    53fc:	69078613          	addi	a2,a5,1680 # c690 <excnames.1746+0x5b8>
    5400:	0da00593          	li	a1,218
    5404:	0000c7b7          	lui	a5,0xc
    5408:	62478513          	addi	a0,a5,1572 # c624 <excnames.1746+0x54c>
    540c:	e1cfb0ef          	jal	a28 <__panic>
    5410:	fe442783          	lw	a5,-28(s0)
    5414:	00178793          	addi	a5,a5,1
    5418:	fef42223          	sw	a5,-28(s0)
    541c:	fe442703          	lw	a4,-28(s0)
    5420:	00300793          	li	a5,3
    5424:	f2e7d6e3          	ble	a4,a5,5350 <check_swap+0x268>
    5428:	0000f7b7          	lui	a5,0xf
    542c:	6a87a703          	lw	a4,1704(a5) # f6a8 <free_area>
    5430:	f8e42c23          	sw	a4,-104(s0)
    5434:	6a878793          	addi	a5,a5,1704
    5438:	0047a783          	lw	a5,4(a5)
    543c:	f8f42e23          	sw	a5,-100(s0)
    5440:	0000f7b7          	lui	a5,0xf
    5444:	6a878793          	addi	a5,a5,1704 # f6a8 <free_area>
    5448:	faf42c23          	sw	a5,-72(s0)
    544c:	fb842783          	lw	a5,-72(s0)
    5450:	fb842703          	lw	a4,-72(s0)
    5454:	00e7a223          	sw	a4,4(a5)
    5458:	fb842783          	lw	a5,-72(s0)
    545c:	0047a703          	lw	a4,4(a5)
    5460:	fb842783          	lw	a5,-72(s0)
    5464:	00e7a023          	sw	a4,0(a5)
    5468:	0000f7b7          	lui	a5,0xf
    546c:	6a878793          	addi	a5,a5,1704 # f6a8 <free_area>
    5470:	fcf42023          	sw	a5,-64(s0)
    5474:	fc042783          	lw	a5,-64(s0)
    5478:	0047a783          	lw	a5,4(a5)
    547c:	fc042703          	lw	a4,-64(s0)
    5480:	40f707b3          	sub	a5,a4,a5
    5484:	0017b793          	seqz	a5,a5
    5488:	0ff7f793          	andi	a5,a5,255
    548c:	02079263          	bnez	a5,54b0 <check_swap+0x3c8>
    5490:	0000d7b7          	lui	a5,0xd
    5494:	8c878693          	addi	a3,a5,-1848 # c8c8 <excnames.1746+0x7f0>
    5498:	0000c7b7          	lui	a5,0xc
    549c:	69078613          	addi	a2,a5,1680 # c690 <excnames.1746+0x5b8>
    54a0:	0de00593          	li	a1,222
    54a4:	0000c7b7          	lui	a5,0xc
    54a8:	62478513          	addi	a0,a5,1572 # c624 <excnames.1746+0x54c>
    54ac:	d7cfb0ef          	jal	a28 <__panic>
    54b0:	0000f7b7          	lui	a5,0xf
    54b4:	6a878793          	addi	a5,a5,1704 # f6a8 <free_area>
    54b8:	0087a783          	lw	a5,8(a5)
    54bc:	faf42a23          	sw	a5,-76(s0)
    54c0:	0000f7b7          	lui	a5,0xf
    54c4:	6a878793          	addi	a5,a5,1704 # f6a8 <free_area>
    54c8:	0007a423          	sw	zero,8(a5)
    54cc:	fe042223          	sw	zero,-28(s0)
    54d0:	0340006f          	j	5504 <check_swap+0x41c>
    54d4:	0000f7b7          	lui	a5,0xf
    54d8:	fe442703          	lw	a4,-28(s0)
    54dc:	00271713          	slli	a4,a4,0x2
    54e0:	60478793          	addi	a5,a5,1540 # f604 <check_rp>
    54e4:	00f707b3          	add	a5,a4,a5
    54e8:	0007a783          	lw	a5,0(a5)
    54ec:	00100593          	li	a1,1
    54f0:	00078513          	mv	a0,a5
    54f4:	3f0020ef          	jal	78e4 <free_pages>
    54f8:	fe442783          	lw	a5,-28(s0)
    54fc:	00178793          	addi	a5,a5,1
    5500:	fef42223          	sw	a5,-28(s0)
    5504:	fe442703          	lw	a4,-28(s0)
    5508:	00300793          	li	a5,3
    550c:	fce7d4e3          	ble	a4,a5,54d4 <check_swap+0x3ec>
    5510:	0000f7b7          	lui	a5,0xf
    5514:	6a878793          	addi	a5,a5,1704 # f6a8 <free_area>
    5518:	0087a703          	lw	a4,8(a5)
    551c:	00400793          	li	a5,4
    5520:	02f70263          	beq	a4,a5,5544 <check_swap+0x45c>
    5524:	0000d7b7          	lui	a5,0xd
    5528:	8e078693          	addi	a3,a5,-1824 # c8e0 <excnames.1746+0x808>
    552c:	0000c7b7          	lui	a5,0xc
    5530:	69078613          	addi	a2,a5,1680 # c690 <excnames.1746+0x5b8>
    5534:	0e700593          	li	a1,231
    5538:	0000c7b7          	lui	a5,0xc
    553c:	62478513          	addi	a0,a5,1572 # c624 <excnames.1746+0x54c>
    5540:	ce8fb0ef          	jal	a28 <__panic>
    5544:	0000d7b7          	lui	a5,0xd
    5548:	90478513          	addi	a0,a5,-1788 # c904 <excnames.1746+0x82c>
    554c:	a90fb0ef          	jal	7dc <cprintf>
    5550:	0000e7b7          	lui	a5,0xe
    5554:	5e07a223          	sw	zero,1508(a5) # e5e4 <__sbss_start>
    5558:	945ff0ef          	jal	4e9c <check_content_set>
    555c:	0000f7b7          	lui	a5,0xf
    5560:	6a878793          	addi	a5,a5,1704 # f6a8 <free_area>
    5564:	0087a783          	lw	a5,8(a5)
    5568:	02078263          	beqz	a5,558c <check_swap+0x4a4>
    556c:	0000d7b7          	lui	a5,0xd
    5570:	92c78693          	addi	a3,a5,-1748 # c92c <excnames.1746+0x854>
    5574:	0000c7b7          	lui	a5,0xc
    5578:	69078613          	addi	a2,a5,1680 # c690 <excnames.1746+0x5b8>
    557c:	0f000593          	li	a1,240
    5580:	0000c7b7          	lui	a5,0xc
    5584:	62478513          	addi	a0,a5,1572 # c624 <excnames.1746+0x54c>
    5588:	ca0fb0ef          	jal	a28 <__panic>
    558c:	fe042223          	sw	zero,-28(s0)
    5590:	05c0006f          	j	55ec <check_swap+0x504>
    5594:	0000f7b7          	lui	a5,0xf
    5598:	fe442703          	lw	a4,-28(s0)
    559c:	00271713          	slli	a4,a4,0x2
    55a0:	61478793          	addi	a5,a5,1556 # f614 <swap_in_seq_no>
    55a4:	00f707b3          	add	a5,a4,a5
    55a8:	fff00713          	li	a4,-1
    55ac:	00e7a023          	sw	a4,0(a5)
    55b0:	0000f7b7          	lui	a5,0xf
    55b4:	fe442703          	lw	a4,-28(s0)
    55b8:	00271713          	slli	a4,a4,0x2
    55bc:	61478793          	addi	a5,a5,1556 # f614 <swap_in_seq_no>
    55c0:	00f707b3          	add	a5,a4,a5
    55c4:	0007a703          	lw	a4,0(a5)
    55c8:	0000f7b7          	lui	a5,0xf
    55cc:	fe442683          	lw	a3,-28(s0)
    55d0:	00269693          	slli	a3,a3,0x2
    55d4:	63c78793          	addi	a5,a5,1596 # f63c <swap_out_seq_no>
    55d8:	00f687b3          	add	a5,a3,a5
    55dc:	00e7a023          	sw	a4,0(a5)
    55e0:	fe442783          	lw	a5,-28(s0)
    55e4:	00178793          	addi	a5,a5,1
    55e8:	fef42223          	sw	a5,-28(s0)
    55ec:	fe442703          	lw	a4,-28(s0)
    55f0:	00900793          	li	a5,9
    55f4:	fae7d0e3          	ble	a4,a5,5594 <check_swap+0x4ac>
    55f8:	fe042223          	sw	zero,-28(s0)
    55fc:	1440006f          	j	5740 <check_swap+0x658>
    5600:	0000f7b7          	lui	a5,0xf
    5604:	fe442703          	lw	a4,-28(s0)
    5608:	00271713          	slli	a4,a4,0x2
    560c:	69078793          	addi	a5,a5,1680 # f690 <check_ptep>
